Archive member included to satisfy reference by file (symbol)

c:/program files (x86)/atollic/truestudio for stm32 9.0.0/armtools/bin/../lib/gcc/arm-atollic-eabi/6.3.1/../../../../arm-atollic-eabi/lib/armv7e-m/fpu\libc_nano.a(lib_a-init.o)
                              startup\startup_stm32f411xe.o (__libc_init_array)
c:/program files (x86)/atollic/truestudio for stm32 9.0.0/armtools/bin/../lib/gcc/arm-atollic-eabi/6.3.1/../../../../arm-atollic-eabi/lib/armv7e-m/fpu\libc_nano.a(lib_a-malloc.o)
                              Middlewares\ST\STM32_USB_Device_Library\Class\RNDIS\Src\usbd_rndis.o (malloc)
c:/program files (x86)/atollic/truestudio for stm32 9.0.0/armtools/bin/../lib/gcc/arm-atollic-eabi/6.3.1/../../../../arm-atollic-eabi/lib/armv7e-m/fpu\libc_nano.a(lib_a-memcmp.o)
                              Middlewares\Third_Party\FreeRTOS-Plus-TCP\FreeRTOS_ARP.o (memcmp)
c:/program files (x86)/atollic/truestudio for stm32 9.0.0/armtools/bin/../lib/gcc/arm-atollic-eabi/6.3.1/../../../../arm-atollic-eabi/lib/armv7e-m/fpu\libc_nano.a(lib_a-memcpy-stub.o)
                              Middlewares\ST\STM32_USB_Device_Library\App\Src\usbd_rndis_if.o (memcpy)
c:/program files (x86)/atollic/truestudio for stm32 9.0.0/armtools/bin/../lib/gcc/arm-atollic-eabi/6.3.1/../../../../arm-atollic-eabi/lib/armv7e-m/fpu\libc_nano.a(lib_a-memmove.o)
                              Middlewares\Third_Party\FreeRTOS-Plus-TCP\FreeRTOS_IP.o (memmove)
c:/program files (x86)/atollic/truestudio for stm32 9.0.0/armtools/bin/../lib/gcc/arm-atollic-eabi/6.3.1/../../../../arm-atollic-eabi/lib/armv7e-m/fpu\libc_nano.a(lib_a-memset.o)
                              Middlewares\Third_Party\FreeRTOS\Source\CMSIS_RTOS\cmsis_os.o (memset)
c:/program files (x86)/atollic/truestudio for stm32 9.0.0/armtools/bin/../lib/gcc/arm-atollic-eabi/6.3.1/../../../../arm-atollic-eabi/lib/armv7e-m/fpu\libc_nano.a(lib_a-nano-freer.o)
                              c:/program files (x86)/atollic/truestudio for stm32 9.0.0/armtools/bin/../lib/gcc/arm-atollic-eabi/6.3.1/../../../../arm-atollic-eabi/lib/armv7e-m/fpu\libc_nano.a(lib_a-malloc.o) (_free_r)
c:/program files (x86)/atollic/truestudio for stm32 9.0.0/armtools/bin/../lib/gcc/arm-atollic-eabi/6.3.1/../../../../arm-atollic-eabi/lib/armv7e-m/fpu\libc_nano.a(lib_a-nano-mallocr.o)
                              c:/program files (x86)/atollic/truestudio for stm32 9.0.0/armtools/bin/../lib/gcc/arm-atollic-eabi/6.3.1/../../../../arm-atollic-eabi/lib/armv7e-m/fpu\libc_nano.a(lib_a-malloc.o) (_malloc_r)
c:/program files (x86)/atollic/truestudio for stm32 9.0.0/armtools/bin/../lib/gcc/arm-atollic-eabi/6.3.1/../../../../arm-atollic-eabi/lib/armv7e-m/fpu\libc_nano.a(lib_a-rand.o)
                              Middlewares\Third_Party\FreeRTOS-Plus-TCP\FreeRTOS_DNS.o (rand)
c:/program files (x86)/atollic/truestudio for stm32 9.0.0/armtools/bin/../lib/gcc/arm-atollic-eabi/6.3.1/../../../../arm-atollic-eabi/lib/armv7e-m/fpu\libc_nano.a(lib_a-sbrkr.o)
                              c:/program files (x86)/atollic/truestudio for stm32 9.0.0/armtools/bin/../lib/gcc/arm-atollic-eabi/6.3.1/../../../../arm-atollic-eabi/lib/armv7e-m/fpu\libc_nano.a(lib_a-nano-mallocr.o) (_sbrk_r)
c:/program files (x86)/atollic/truestudio for stm32 9.0.0/armtools/bin/../lib/gcc/arm-atollic-eabi/6.3.1/../../../../arm-atollic-eabi/lib/armv7e-m/fpu\libc_nano.a(lib_a-strcasecmp.o)
                              Src\main.o (strcasecmp)
c:/program files (x86)/atollic/truestudio for stm32 9.0.0/armtools/bin/../lib/gcc/arm-atollic-eabi/6.3.1/../../../../arm-atollic-eabi/lib/armv7e-m/fpu\libc_nano.a(lib_a-strcmp.o)
                              Middlewares\Third_Party\FreeRTOS-Plus-TCP\FreeRTOS_DNS.o (strcmp)
c:/program files (x86)/atollic/truestudio for stm32 9.0.0/armtools/bin/../lib/gcc/arm-atollic-eabi/6.3.1/../../../../arm-atollic-eabi/lib/armv7e-m/fpu\libc_nano.a(lib_a-strcpy.o)
                              Middlewares\Third_Party\FreeRTOS-Plus-TCP\FreeRTOS_DNS.o (strcpy)
c:/program files (x86)/atollic/truestudio for stm32 9.0.0/armtools/bin/../lib/gcc/arm-atollic-eabi/6.3.1/../../../../arm-atollic-eabi/lib/armv7e-m/fpu\libc_nano.a(lib_a-strlen.o)
                              Middlewares\Third_Party\FreeRTOS-Plus-TCP\FreeRTOS_DNS.o (strlen)
c:/program files (x86)/atollic/truestudio for stm32 9.0.0/armtools/bin/../lib/gcc/arm-atollic-eabi/6.3.1/../../../../arm-atollic-eabi/lib/armv7e-m/fpu\libc_nano.a(lib_a-impure.o)
                              c:/program files (x86)/atollic/truestudio for stm32 9.0.0/armtools/bin/../lib/gcc/arm-atollic-eabi/6.3.1/../../../../arm-atollic-eabi/lib/armv7e-m/fpu\libc_nano.a(lib_a-malloc.o) (_impure_ptr)
c:/program files (x86)/atollic/truestudio for stm32 9.0.0/armtools/bin/../lib/gcc/arm-atollic-eabi/6.3.1/../../../../arm-atollic-eabi/lib/armv7e-m/fpu\libc_nano.a(lib_a-locale.o)
                              c:/program files (x86)/atollic/truestudio for stm32 9.0.0/armtools/bin/../lib/gcc/arm-atollic-eabi/6.3.1/../../../../arm-atollic-eabi/lib/armv7e-m/fpu\libc_nano.a(lib_a-strcasecmp.o) (__locale_ctype_ptr)
c:/program files (x86)/atollic/truestudio for stm32 9.0.0/armtools/bin/../lib/gcc/arm-atollic-eabi/6.3.1/../../../../arm-atollic-eabi/lib/armv7e-m/fpu\libc_nano.a(lib_a-mbtowc_r.o)
                              c:/program files (x86)/atollic/truestudio for stm32 9.0.0/armtools/bin/../lib/gcc/arm-atollic-eabi/6.3.1/../../../../arm-atollic-eabi/lib/armv7e-m/fpu\libc_nano.a(lib_a-locale.o) (__ascii_mbtowc)
c:/program files (x86)/atollic/truestudio for stm32 9.0.0/armtools/bin/../lib/gcc/arm-atollic-eabi/6.3.1/../../../../arm-atollic-eabi/lib/armv7e-m/fpu\libc_nano.a(lib_a-mlock.o)
                              c:/program files (x86)/atollic/truestudio for stm32 9.0.0/armtools/bin/../lib/gcc/arm-atollic-eabi/6.3.1/../../../../arm-atollic-eabi/lib/armv7e-m/fpu\libc_nano.a(lib_a-nano-freer.o) (__malloc_lock)
c:/program files (x86)/atollic/truestudio for stm32 9.0.0/armtools/bin/../lib/gcc/arm-atollic-eabi/6.3.1/../../../../arm-atollic-eabi/lib/armv7e-m/fpu\libc_nano.a(lib_a-reent.o)
                              c:/program files (x86)/atollic/truestudio for stm32 9.0.0/armtools/bin/../lib/gcc/arm-atollic-eabi/6.3.1/../../../../arm-atollic-eabi/lib/armv7e-m/fpu\libc_nano.a(lib_a-sbrkr.o) (errno)
c:/program files (x86)/atollic/truestudio for stm32 9.0.0/armtools/bin/../lib/gcc/arm-atollic-eabi/6.3.1/../../../../arm-atollic-eabi/lib/armv7e-m/fpu\libc_nano.a(lib_a-wctomb_r.o)
                              c:/program files (x86)/atollic/truestudio for stm32 9.0.0/armtools/bin/../lib/gcc/arm-atollic-eabi/6.3.1/../../../../arm-atollic-eabi/lib/armv7e-m/fpu\libc_nano.a(lib_a-locale.o) (__ascii_wctomb)
c:/program files (x86)/atollic/truestudio for stm32 9.0.0/armtools/bin/../lib/gcc/arm-atollic-eabi/6.3.1/../../../../arm-atollic-eabi/lib/armv7e-m/fpu\libc_nano.a(lib_a-ctype_.o)
                              c:/program files (x86)/atollic/truestudio for stm32 9.0.0/armtools/bin/../lib/gcc/arm-atollic-eabi/6.3.1/../../../../arm-atollic-eabi/lib/armv7e-m/fpu\libc_nano.a(lib_a-locale.o) (_ctype_)
c:/program files (x86)/atollic/truestudio for stm32 9.0.0/armtools/bin/../lib/gcc/arm-atollic-eabi/6.3.1/armv7e-m/fpu\libgcc.a(_aeabi_uldivmod.o)
                              Drivers\STM32F4xx_HAL_Driver\Src\stm32f4xx_hal_rcc.o (__aeabi_uldivmod)
c:/program files (x86)/atollic/truestudio for stm32 9.0.0/armtools/bin/../lib/gcc/arm-atollic-eabi/6.3.1/armv7e-m/fpu\libgcc.a(_udivmoddi4.o)
                              c:/program files (x86)/atollic/truestudio for stm32 9.0.0/armtools/bin/../lib/gcc/arm-atollic-eabi/6.3.1/armv7e-m/fpu\libgcc.a(_aeabi_uldivmod.o) (__udivmoddi4)
c:/program files (x86)/atollic/truestudio for stm32 9.0.0/armtools/bin/../lib/gcc/arm-atollic-eabi/6.3.1/armv7e-m/fpu\libgcc.a(_dvmd_tls.o)
                              c:/program files (x86)/atollic/truestudio for stm32 9.0.0/armtools/bin/../lib/gcc/arm-atollic-eabi/6.3.1/armv7e-m/fpu\libgcc.a(_aeabi_uldivmod.o) (__aeabi_ldiv0)
c:/program files (x86)/atollic/truestudio for stm32 9.0.0/armtools/bin/../lib/gcc/arm-atollic-eabi/6.3.1/../../../../arm-atollic-eabi/lib/armv7e-m/fpu\libnosys.a(sbrk.o)
                              c:/program files (x86)/atollic/truestudio for stm32 9.0.0/armtools/bin/../lib/gcc/arm-atollic-eabi/6.3.1/../../../../arm-atollic-eabi/lib/armv7e-m/fpu\libc_nano.a(lib_a-sbrkr.o) (_sbrk)

Allocating common symbols
Common symbol       size              file

hUsbDeviceFS        0x224             Middlewares\ST\STM32_USB_Device_Library\App\Src\usb_device.o
defaultTaskHandle   0x4               Src\main.o
errno               0x4               c:/program files (x86)/atollic/truestudio for stm32 9.0.0/armtools/bin/../lib/gcc/arm-atollic-eabi/6.3.1/../../../../arm-atollic-eabi/lib/armv7e-m/fpu\libc_nano.a(lib_a-reent.o)
htim10              0x3c              Src\stm32f4xx_hal_timebase_TIM.o
hpcd_USB_OTG_FS     0x3f0             Middlewares\ST\STM32_USB_Device_Library\App\Src\usbd_conf.o
uwTick              0x4               Drivers\STM32F4xx_HAL_Driver\Src\stm32f4xx_hal.o
xQueueRegistry      0x40              Middlewares\Third_Party\FreeRTOS\Source\queue.o
xBoundTCPSocketsList
                    0x14              Middlewares\Third_Party\FreeRTOS-Plus-TCP\FreeRTOS_Sockets.o
pFlash              0x20              Drivers\STM32F4xx_HAL_Driver\Src\stm32f4xx_hal_flash.o
UserTxBufferFS      0x82c             Middlewares\ST\STM32_USB_Device_Library\App\Src\usbd_rndis_if.o
xBoundUDPSocketsList
                    0x14              Middlewares\Third_Party\FreeRTOS-Plus-TCP\FreeRTOS_Sockets.o
usbd_composite_class_data
                    0x190             Middlewares\ST\STM32_USB_Device_Library\Class\Composite\Src\usbd_composite.o
USBD_StrDesc        0x200             Middlewares\ST\STM32_USB_Device_Library\App\Src\usbd_desc.o

Discarded input sections

 .text          0x00000000        0x0 c:/program files (x86)/atollic/truestudio for stm32 9.0.0/armtools/bin/../lib/gcc/arm-atollic-eabi/6.3.1/armv7e-m/fpu/crti.o
 .data          0x00000000        0x0 c:/program files (x86)/atollic/truestudio for stm32 9.0.0/armtools/bin/../lib/gcc/arm-atollic-eabi/6.3.1/armv7e-m/fpu/crti.o
 .bss           0x00000000        0x0 c:/program files (x86)/atollic/truestudio for stm32 9.0.0/armtools/bin/../lib/gcc/arm-atollic-eabi/6.3.1/armv7e-m/fpu/crti.o
 .data          0x00000000        0x4 c:/program files (x86)/atollic/truestudio for stm32 9.0.0/armtools/bin/../lib/gcc/arm-atollic-eabi/6.3.1/armv7e-m/fpu/crtbegin.o
 .text          0x00000000        0x0 Drivers\STM32F4xx_HAL_Driver\Src\stm32f4xx_hal.o
 .data          0x00000000        0x0 Drivers\STM32F4xx_HAL_Driver\Src\stm32f4xx_hal.o
 .bss           0x00000000        0x0 Drivers\STM32F4xx_HAL_Driver\Src\stm32f4xx_hal.o
 .data.uwTickPrio
                0x00000000        0x4 Drivers\STM32F4xx_HAL_Driver\Src\stm32f4xx_hal.o
 .text.HAL_DeInit
                0x00000000       0x58 Drivers\STM32F4xx_HAL_Driver\Src\stm32f4xx_hal.o
 .text.HAL_MspInit
                0x00000000        0xe Drivers\STM32F4xx_HAL_Driver\Src\stm32f4xx_hal.o
 .text.HAL_MspDeInit
                0x00000000        0xe Drivers\STM32F4xx_HAL_Driver\Src\stm32f4xx_hal.o
 .text.HAL_InitTick
                0x00000000       0x60 Drivers\STM32F4xx_HAL_Driver\Src\stm32f4xx_hal.o
 .text.HAL_GetTickPrio
                0x00000000       0x18 Drivers\STM32F4xx_HAL_Driver\Src\stm32f4xx_hal.o
 .text.HAL_SetTickFreq
                0x00000000       0x40 Drivers\STM32F4xx_HAL_Driver\Src\stm32f4xx_hal.o
 .text.HAL_GetTickFreq
                0x00000000       0x18 Drivers\STM32F4xx_HAL_Driver\Src\stm32f4xx_hal.o
 .text.HAL_SuspendTick
                0x00000000       0x20 Drivers\STM32F4xx_HAL_Driver\Src\stm32f4xx_hal.o
 .text.HAL_ResumeTick
                0x00000000       0x20 Drivers\STM32F4xx_HAL_Driver\Src\stm32f4xx_hal.o
 .text.HAL_GetHalVersion
                0x00000000       0x14 Drivers\STM32F4xx_HAL_Driver\Src\stm32f4xx_hal.o
 .text.HAL_GetREVID
                0x00000000       0x18 Drivers\STM32F4xx_HAL_Driver\Src\stm32f4xx_hal.o
 .text.HAL_GetDEVID
                0x00000000       0x1c Drivers\STM32F4xx_HAL_Driver\Src\stm32f4xx_hal.o
 .text.HAL_DBGMCU_EnableDBGSleepMode
                0x00000000       0x20 Drivers\STM32F4xx_HAL_Driver\Src\stm32f4xx_hal.o
 .text.HAL_DBGMCU_DisableDBGSleepMode
                0x00000000       0x20 Drivers\STM32F4xx_HAL_Driver\Src\stm32f4xx_hal.o
 .text.HAL_DBGMCU_EnableDBGStopMode
                0x00000000       0x20 Drivers\STM32F4xx_HAL_Driver\Src\stm32f4xx_hal.o
 .text.HAL_DBGMCU_DisableDBGStopMode
                0x00000000       0x20 Drivers\STM32F4xx_HAL_Driver\Src\stm32f4xx_hal.o
 .text.HAL_DBGMCU_EnableDBGStandbyMode
                0x00000000       0x20 Drivers\STM32F4xx_HAL_Driver\Src\stm32f4xx_hal.o
 .text.HAL_DBGMCU_DisableDBGStandbyMode
                0x00000000       0x20 Drivers\STM32F4xx_HAL_Driver\Src\stm32f4xx_hal.o
 .text.HAL_EnableCompensationCell
                0x00000000       0x18 Drivers\STM32F4xx_HAL_Driver\Src\stm32f4xx_hal.o
 .text.HAL_DisableCompensationCell
                0x00000000       0x18 Drivers\STM32F4xx_HAL_Driver\Src\stm32f4xx_hal.o
 .text.HAL_GetUID
                0x00000000       0x3c Drivers\STM32F4xx_HAL_Driver\Src\stm32f4xx_hal.o
 .text          0x00000000        0x0 Drivers\STM32F4xx_HAL_Driver\Src\stm32f4xx_hal_cortex.o
 .data          0x00000000        0x0 Drivers\STM32F4xx_HAL_Driver\Src\stm32f4xx_hal_cortex.o
 .bss           0x00000000        0x0 Drivers\STM32F4xx_HAL_Driver\Src\stm32f4xx_hal_cortex.o
 .text.NVIC_DisableIRQ
                0x00000000       0x34 Drivers\STM32F4xx_HAL_Driver\Src\stm32f4xx_hal_cortex.o
 .text.NVIC_GetPendingIRQ
                0x00000000       0x38 Drivers\STM32F4xx_HAL_Driver\Src\stm32f4xx_hal_cortex.o
 .text.NVIC_SetPendingIRQ
                0x00000000       0x34 Drivers\STM32F4xx_HAL_Driver\Src\stm32f4xx_hal_cortex.o
 .text.NVIC_ClearPendingIRQ
                0x00000000       0x34 Drivers\STM32F4xx_HAL_Driver\Src\stm32f4xx_hal_cortex.o
 .text.NVIC_GetActive
                0x00000000       0x38 Drivers\STM32F4xx_HAL_Driver\Src\stm32f4xx_hal_cortex.o
 .text.NVIC_GetPriority
                0x00000000       0x50 Drivers\STM32F4xx_HAL_Driver\Src\stm32f4xx_hal_cortex.o
 .text.NVIC_DecodePriority
                0x00000000       0x6a Drivers\STM32F4xx_HAL_Driver\Src\stm32f4xx_hal_cortex.o
 .text.NVIC_SystemReset
                0x00000000       0x28 Drivers\STM32F4xx_HAL_Driver\Src\stm32f4xx_hal_cortex.o
 .text.HAL_NVIC_DisableIRQ
                0x00000000       0x1c Drivers\STM32F4xx_HAL_Driver\Src\stm32f4xx_hal_cortex.o
 .text.HAL_NVIC_SystemReset
                0x00000000        0xc Drivers\STM32F4xx_HAL_Driver\Src\stm32f4xx_hal_cortex.o
 .text.HAL_MPU_Disable
                0x00000000       0x2c Drivers\STM32F4xx_HAL_Driver\Src\stm32f4xx_hal_cortex.o
 .text.HAL_MPU_Enable
                0x00000000       0x3c Drivers\STM32F4xx_HAL_Driver\Src\stm32f4xx_hal_cortex.o
 .text.HAL_MPU_ConfigRegion
                0x00000000       0x88 Drivers\STM32F4xx_HAL_Driver\Src\stm32f4xx_hal_cortex.o
 .text.HAL_NVIC_GetPriorityGrouping
                0x00000000        0xe Drivers\STM32F4xx_HAL_Driver\Src\stm32f4xx_hal_cortex.o
 .text.HAL_NVIC_GetPriority
                0x00000000       0x2c Drivers\STM32F4xx_HAL_Driver\Src\stm32f4xx_hal_cortex.o
 .text.HAL_NVIC_SetPendingIRQ
                0x00000000       0x1c Drivers\STM32F4xx_HAL_Driver\Src\stm32f4xx_hal_cortex.o
 .text.HAL_NVIC_GetPendingIRQ
                0x00000000       0x1e Drivers\STM32F4xx_HAL_Driver\Src\stm32f4xx_hal_cortex.o
 .text.HAL_NVIC_ClearPendingIRQ
                0x00000000       0x1c Drivers\STM32F4xx_HAL_Driver\Src\stm32f4xx_hal_cortex.o
 .text.HAL_NVIC_GetActive
                0x00000000       0x1e Drivers\STM32F4xx_HAL_Driver\Src\stm32f4xx_hal_cortex.o
 .text.HAL_SYSTICK_IRQHandler
                0x00000000        0xc Drivers\STM32F4xx_HAL_Driver\Src\stm32f4xx_hal_cortex.o
 .text.HAL_SYSTICK_Callback
                0x00000000        0xe Drivers\STM32F4xx_HAL_Driver\Src\stm32f4xx_hal_cortex.o
 .text          0x00000000        0x0 Drivers\STM32F4xx_HAL_Driver\Src\stm32f4xx_hal_dma.o
 .data          0x00000000        0x0 Drivers\STM32F4xx_HAL_Driver\Src\stm32f4xx_hal_dma.o
 .bss           0x00000000        0x0 Drivers\STM32F4xx_HAL_Driver\Src\stm32f4xx_hal_dma.o
 .text.HAL_DMA_Init
                0x00000000      0x15c Drivers\STM32F4xx_HAL_Driver\Src\stm32f4xx_hal_dma.o
 .text.HAL_DMA_DeInit
                0x00000000       0x98 Drivers\STM32F4xx_HAL_Driver\Src\stm32f4xx_hal_dma.o
 .text.HAL_DMA_Start
                0x00000000       0x76 Drivers\STM32F4xx_HAL_Driver\Src\stm32f4xx_hal_dma.o
 .text.HAL_DMA_Start_IT
                0x00000000       0xc0 Drivers\STM32F4xx_HAL_Driver\Src\stm32f4xx_hal_dma.o
 .text.HAL_DMA_Abort
                0x00000000       0xe0 Drivers\STM32F4xx_HAL_Driver\Src\stm32f4xx_hal_dma.o
 .text.HAL_DMA_Abort_IT
                0x00000000       0x44 Drivers\STM32F4xx_HAL_Driver\Src\stm32f4xx_hal_dma.o
 .text.HAL_DMA_PollForTransfer
                0x00000000      0x1be Drivers\STM32F4xx_HAL_Driver\Src\stm32f4xx_hal_dma.o
 .text.HAL_DMA_IRQHandler
                0x00000000      0x314 Drivers\STM32F4xx_HAL_Driver\Src\stm32f4xx_hal_dma.o
 .text.HAL_DMA_RegisterCallback
                0x00000000       0xa8 Drivers\STM32F4xx_HAL_Driver\Src\stm32f4xx_hal_dma.o
 .text.HAL_DMA_UnRegisterCallback
                0x00000000       0xd4 Drivers\STM32F4xx_HAL_Driver\Src\stm32f4xx_hal_dma.o
 .text.HAL_DMA_GetState
                0x00000000       0x1c Drivers\STM32F4xx_HAL_Driver\Src\stm32f4xx_hal_dma.o
 .text.HAL_DMA_GetError
                0x00000000       0x18 Drivers\STM32F4xx_HAL_Driver\Src\stm32f4xx_hal_dma.o
 .text.DMA_SetConfig
                0x00000000       0x5c Drivers\STM32F4xx_HAL_Driver\Src\stm32f4xx_hal_dma.o
 .text.DMA_CalcBaseAndBitshift
                0x00000000       0x6c Drivers\STM32F4xx_HAL_Driver\Src\stm32f4xx_hal_dma.o
 .text.DMA_CheckFifoParam
                0x00000000       0xf4 Drivers\STM32F4xx_HAL_Driver\Src\stm32f4xx_hal_dma.o
 .rodata.flagBitshiftOffset.8849
                0x00000000        0x8 Drivers\STM32F4xx_HAL_Driver\Src\stm32f4xx_hal_dma.o
 .debug_info    0x00000000     0x111b Drivers\STM32F4xx_HAL_Driver\Src\stm32f4xx_hal_dma.o
 .debug_abbrev  0x00000000      0x279 Drivers\STM32F4xx_HAL_Driver\Src\stm32f4xx_hal_dma.o
 .debug_aranges
                0x00000000       0x90 Drivers\STM32F4xx_HAL_Driver\Src\stm32f4xx_hal_dma.o
 .debug_ranges  0x00000000       0x80 Drivers\STM32F4xx_HAL_Driver\Src\stm32f4xx_hal_dma.o
 .debug_line    0x00000000      0x583 Drivers\STM32F4xx_HAL_Driver\Src\stm32f4xx_hal_dma.o
 .debug_str     0x00000000      0xbdc Drivers\STM32F4xx_HAL_Driver\Src\stm32f4xx_hal_dma.o
 .comment       0x00000000       0x7d Drivers\STM32F4xx_HAL_Driver\Src\stm32f4xx_hal_dma.o
 .debug_frame   0x00000000      0x250 Drivers\STM32F4xx_HAL_Driver\Src\stm32f4xx_hal_dma.o
 .ARM.attributes
                0x00000000       0x39 Drivers\STM32F4xx_HAL_Driver\Src\stm32f4xx_hal_dma.o
 .text          0x00000000        0x0 Drivers\STM32F4xx_HAL_Driver\Src\stm32f4xx_hal_dma_ex.o
 .data          0x00000000        0x0 Drivers\STM32F4xx_HAL_Driver\Src\stm32f4xx_hal_dma_ex.o
 .bss           0x00000000        0x0 Drivers\STM32F4xx_HAL_Driver\Src\stm32f4xx_hal_dma_ex.o
 .text.HAL_DMAEx_MultiBufferStart
                0x00000000       0x96 Drivers\STM32F4xx_HAL_Driver\Src\stm32f4xx_hal_dma_ex.o
 .text.HAL_DMAEx_MultiBufferStart_IT
                0x00000000     0x1478 Drivers\STM32F4xx_HAL_Driver\Src\stm32f4xx_hal_dma_ex.o
 .text.HAL_DMAEx_ChangeMemory
                0x00000000       0x34 Drivers\STM32F4xx_HAL_Driver\Src\stm32f4xx_hal_dma_ex.o
 .text.DMA_MultiBufferSetConfig
                0x00000000       0x4c Drivers\STM32F4xx_HAL_Driver\Src\stm32f4xx_hal_dma_ex.o
 .debug_info    0x00000000      0xd86 Drivers\STM32F4xx_HAL_Driver\Src\stm32f4xx_hal_dma_ex.o
 .debug_abbrev  0x00000000      0x20f Drivers\STM32F4xx_HAL_Driver\Src\stm32f4xx_hal_dma_ex.o
 .debug_aranges
                0x00000000       0x38 Drivers\STM32F4xx_HAL_Driver\Src\stm32f4xx_hal_dma_ex.o
 .debug_ranges  0x00000000       0x28 Drivers\STM32F4xx_HAL_Driver\Src\stm32f4xx_hal_dma_ex.o
 .debug_line    0x00000000      0xe5c Drivers\STM32F4xx_HAL_Driver\Src\stm32f4xx_hal_dma_ex.o
 .debug_str     0x00000000      0x9dd Drivers\STM32F4xx_HAL_Driver\Src\stm32f4xx_hal_dma_ex.o
 .comment       0x00000000       0x7d Drivers\STM32F4xx_HAL_Driver\Src\stm32f4xx_hal_dma_ex.o
 .debug_frame   0x00000000       0xac Drivers\STM32F4xx_HAL_Driver\Src\stm32f4xx_hal_dma_ex.o
 .ARM.attributes
                0x00000000       0x39 Drivers\STM32F4xx_HAL_Driver\Src\stm32f4xx_hal_dma_ex.o
 .text          0x00000000        0x0 Drivers\STM32F4xx_HAL_Driver\Src\stm32f4xx_hal_flash.o
 .data          0x00000000        0x0 Drivers\STM32F4xx_HAL_Driver\Src\stm32f4xx_hal_flash.o
 .bss           0x00000000        0x0 Drivers\STM32F4xx_HAL_Driver\Src\stm32f4xx_hal_flash.o
 .text.HAL_FLASH_Program
                0x00000000       0xa8 Drivers\STM32F4xx_HAL_Driver\Src\stm32f4xx_hal_flash.o
 .text.HAL_FLASH_Program_IT
                0x00000000       0x9c Drivers\STM32F4xx_HAL_Driver\Src\stm32f4xx_hal_flash.o
 .text.HAL_FLASH_IRQHandler
                0x00000000      0x140 Drivers\STM32F4xx_HAL_Driver\Src\stm32f4xx_hal_flash.o
 .text.HAL_FLASH_EndOfOperationCallback
                0x00000000       0x14 Drivers\STM32F4xx_HAL_Driver\Src\stm32f4xx_hal_flash.o
 .text.HAL_FLASH_OperationErrorCallback
                0x00000000       0x14 Drivers\STM32F4xx_HAL_Driver\Src\stm32f4xx_hal_flash.o
 .text.HAL_FLASH_Unlock
                0x00000000       0x44 Drivers\STM32F4xx_HAL_Driver\Src\stm32f4xx_hal_flash.o
 .text.HAL_FLASH_Lock
                0x00000000       0x20 Drivers\STM32F4xx_HAL_Driver\Src\stm32f4xx_hal_flash.o
 .text.HAL_FLASH_OB_Unlock
                0x00000000       0x38 Drivers\STM32F4xx_HAL_Driver\Src\stm32f4xx_hal_flash.o
 .text.HAL_FLASH_OB_Lock
                0x00000000       0x20 Drivers\STM32F4xx_HAL_Driver\Src\stm32f4xx_hal_flash.o
 .text.HAL_FLASH_OB_Launch
                0x00000000       0x28 Drivers\STM32F4xx_HAL_Driver\Src\stm32f4xx_hal_flash.o
 .text.HAL_FLASH_GetError
                0x00000000       0x18 Drivers\STM32F4xx_HAL_Driver\Src\stm32f4xx_hal_flash.o
 .text.FLASH_WaitForLastOperation
                0x00000000       0x80 Drivers\STM32F4xx_HAL_Driver\Src\stm32f4xx_hal_flash.o
 .text.FLASH_Program_DoubleWord
                0x00000000       0x58 Drivers\STM32F4xx_HAL_Driver\Src\stm32f4xx_hal_flash.o
 .text.FLASH_Program_Word
                0x00000000       0x44 Drivers\STM32F4xx_HAL_Driver\Src\stm32f4xx_hal_flash.o
 .text.FLASH_Program_HalfWord
                0x00000000       0x48 Drivers\STM32F4xx_HAL_Driver\Src\stm32f4xx_hal_flash.o
 .text.FLASH_Program_Byte
                0x00000000       0x44 Drivers\STM32F4xx_HAL_Driver\Src\stm32f4xx_hal_flash.o
 .text.FLASH_SetErrorCode
                0x00000000       0xcc Drivers\STM32F4xx_HAL_Driver\Src\stm32f4xx_hal_flash.o
 .debug_info    0x00000000      0xdc4 Drivers\STM32F4xx_HAL_Driver\Src\stm32f4xx_hal_flash.o
 .debug_abbrev  0x00000000      0x2df Drivers\STM32F4xx_HAL_Driver\Src\stm32f4xx_hal_flash.o
 .debug_aranges
                0x00000000       0xa0 Drivers\STM32F4xx_HAL_Driver\Src\stm32f4xx_hal_flash.o
 .debug_ranges  0x00000000       0x90 Drivers\STM32F4xx_HAL_Driver\Src\stm32f4xx_hal_flash.o
 .debug_line    0x00000000      0x498 Drivers\STM32F4xx_HAL_Driver\Src\stm32f4xx_hal_flash.o
 .debug_str     0x00000000      0x995 Drivers\STM32F4xx_HAL_Driver\Src\stm32f4xx_hal_flash.o
 .comment       0x00000000       0x7d Drivers\STM32F4xx_HAL_Driver\Src\stm32f4xx_hal_flash.o
 .debug_frame   0x00000000      0x27c Drivers\STM32F4xx_HAL_Driver\Src\stm32f4xx_hal_flash.o
 .ARM.attributes
                0x00000000       0x39 Drivers\STM32F4xx_HAL_Driver\Src\stm32f4xx_hal_flash.o
 COMMON         0x00000000       0x20 Drivers\STM32F4xx_HAL_Driver\Src\stm32f4xx_hal_flash.o
 .text          0x00000000        0x0 Drivers\STM32F4xx_HAL_Driver\Src\stm32f4xx_hal_flash_ex.o
 .data          0x00000000        0x0 Drivers\STM32F4xx_HAL_Driver\Src\stm32f4xx_hal_flash_ex.o
 .bss           0x00000000        0x0 Drivers\STM32F4xx_HAL_Driver\Src\stm32f4xx_hal_flash_ex.o
 .text.HAL_FLASHEx_Erase
                0x00000000       0xe0 Drivers\STM32F4xx_HAL_Driver\Src\stm32f4xx_hal_flash_ex.o
 .text.HAL_FLASHEx_Erase_IT
                0x00000000       0xac Drivers\STM32F4xx_HAL_Driver\Src\stm32f4xx_hal_flash_ex.o
 .text.HAL_FLASHEx_OBProgram
                0x00000000       0xdc Drivers\STM32F4xx_HAL_Driver\Src\stm32f4xx_hal_flash_ex.o
 .text.HAL_FLASHEx_OBGetConfig
                0x00000000       0x46 Drivers\STM32F4xx_HAL_Driver\Src\stm32f4xx_hal_flash_ex.o
 .text.HAL_FLASHEx_AdvOBProgram
                0x00000000       0x48 Drivers\STM32F4xx_HAL_Driver\Src\stm32f4xx_hal_flash_ex.o
 .text.HAL_FLASHEx_AdvOBGetConfig
                0x00000000       0x24 Drivers\STM32F4xx_HAL_Driver\Src\stm32f4xx_hal_flash_ex.o
 .text.HAL_FLASHEx_OB_SelectPCROP
                0x00000000       0x34 Drivers\STM32F4xx_HAL_Driver\Src\stm32f4xx_hal_flash_ex.o
 .text.HAL_FLASHEx_OB_DeSelectPCROP
                0x00000000       0x30 Drivers\STM32F4xx_HAL_Driver\Src\stm32f4xx_hal_flash_ex.o
 .text.FLASH_MassErase
                0x00000000       0x48 Drivers\STM32F4xx_HAL_Driver\Src\stm32f4xx_hal_flash_ex.o
 .text.FLASH_Erase_Sector
                0x00000000       0x90 Drivers\STM32F4xx_HAL_Driver\Src\stm32f4xx_hal_flash_ex.o
 .text.FLASH_OB_EnableWRP
                0x00000000       0x44 Drivers\STM32F4xx_HAL_Driver\Src\stm32f4xx_hal_flash_ex.o
 .text.FLASH_OB_DisableWRP
                0x00000000       0x40 Drivers\STM32F4xx_HAL_Driver\Src\stm32f4xx_hal_flash_ex.o
 .text.FLASH_OB_EnablePCROP
                0x00000000       0x40 Drivers\STM32F4xx_HAL_Driver\Src\stm32f4xx_hal_flash_ex.o
 .text.FLASH_OB_DisablePCROP
                0x00000000       0x44 Drivers\STM32F4xx_HAL_Driver\Src\stm32f4xx_hal_flash_ex.o
 .text.FLASH_OB_RDP_LevelConfig
                0x00000000       0x34 Drivers\STM32F4xx_HAL_Driver\Src\stm32f4xx_hal_flash_ex.o
 .text.FLASH_OB_UserConfig
                0x00000000       0x60 Drivers\STM32F4xx_HAL_Driver\Src\stm32f4xx_hal_flash_ex.o
 .text.FLASH_OB_BOR_LevelConfig
                0x00000000       0x3c Drivers\STM32F4xx_HAL_Driver\Src\stm32f4xx_hal_flash_ex.o
 .text.FLASH_OB_GetUser
                0x00000000       0x20 Drivers\STM32F4xx_HAL_Driver\Src\stm32f4xx_hal_flash_ex.o
 .text.FLASH_OB_GetWRP
                0x00000000       0x18 Drivers\STM32F4xx_HAL_Driver\Src\stm32f4xx_hal_flash_ex.o
 .text.FLASH_OB_GetRDP
                0x00000000       0x40 Drivers\STM32F4xx_HAL_Driver\Src\stm32f4xx_hal_flash_ex.o
 .text.FLASH_OB_GetBOR
                0x00000000       0x20 Drivers\STM32F4xx_HAL_Driver\Src\stm32f4xx_hal_flash_ex.o
 .text.FLASH_FlushCaches
                0x00000000       0x8c Drivers\STM32F4xx_HAL_Driver\Src\stm32f4xx_hal_flash_ex.o
 .debug_info    0x00000000     0x1043 Drivers\STM32F4xx_HAL_Driver\Src\stm32f4xx_hal_flash_ex.o
 .debug_abbrev  0x00000000      0x2ce Drivers\STM32F4xx_HAL_Driver\Src\stm32f4xx_hal_flash_ex.o
 .debug_aranges
                0x00000000       0xc8 Drivers\STM32F4xx_HAL_Driver\Src\stm32f4xx_hal_flash_ex.o
 .debug_ranges  0x00000000       0xb8 Drivers\STM32F4xx_HAL_Driver\Src\stm32f4xx_hal_flash_ex.o
 .debug_line    0x00000000      0x52f Drivers\STM32F4xx_HAL_Driver\Src\stm32f4xx_hal_flash_ex.o
 .debug_str     0x00000000      0xad4 Drivers\STM32F4xx_HAL_Driver\Src\stm32f4xx_hal_flash_ex.o
 .comment       0x00000000       0x7d Drivers\STM32F4xx_HAL_Driver\Src\stm32f4xx_hal_flash_ex.o
 .debug_frame   0x00000000      0x334 Drivers\STM32F4xx_HAL_Driver\Src\stm32f4xx_hal_flash_ex.o
 .ARM.attributes
                0x00000000       0x39 Drivers\STM32F4xx_HAL_Driver\Src\stm32f4xx_hal_flash_ex.o
 .text          0x00000000        0x0 Drivers\STM32F4xx_HAL_Driver\Src\stm32f4xx_hal_flash_ramfunc.o
 .data          0x00000000        0x0 Drivers\STM32F4xx_HAL_Driver\Src\stm32f4xx_hal_flash_ramfunc.o
 .bss           0x00000000        0x0 Drivers\STM32F4xx_HAL_Driver\Src\stm32f4xx_hal_flash_ramfunc.o
 .RamFunc       0x00000000      0x110 Drivers\STM32F4xx_HAL_Driver\Src\stm32f4xx_hal_flash_ramfunc.o
 .debug_info    0x00000000      0xc2c Drivers\STM32F4xx_HAL_Driver\Src\stm32f4xx_hal_flash_ramfunc.o
 .debug_abbrev  0x00000000      0x1d3 Drivers\STM32F4xx_HAL_Driver\Src\stm32f4xx_hal_flash_ramfunc.o
 .debug_aranges
                0x00000000       0x38 Drivers\STM32F4xx_HAL_Driver\Src\stm32f4xx_hal_flash_ramfunc.o
 .debug_ranges  0x00000000       0x28 Drivers\STM32F4xx_HAL_Driver\Src\stm32f4xx_hal_flash_ramfunc.o
 .debug_line    0x00000000      0x2bd Drivers\STM32F4xx_HAL_Driver\Src\stm32f4xx_hal_flash_ramfunc.o
 .debug_str     0x00000000      0x843 Drivers\STM32F4xx_HAL_Driver\Src\stm32f4xx_hal_flash_ramfunc.o
 .comment       0x00000000       0x7d Drivers\STM32F4xx_HAL_Driver\Src\stm32f4xx_hal_flash_ramfunc.o
 .debug_frame   0x00000000       0xb0 Drivers\STM32F4xx_HAL_Driver\Src\stm32f4xx_hal_flash_ramfunc.o
 .ARM.attributes
                0x00000000       0x39 Drivers\STM32F4xx_HAL_Driver\Src\stm32f4xx_hal_flash_ramfunc.o
 .text          0x00000000        0x0 Drivers\STM32F4xx_HAL_Driver\Src\stm32f4xx_hal_gpio.o
 .data          0x00000000        0x0 Drivers\STM32F4xx_HAL_Driver\Src\stm32f4xx_hal_gpio.o
 .bss           0x00000000        0x0 Drivers\STM32F4xx_HAL_Driver\Src\stm32f4xx_hal_gpio.o
 .text.HAL_GPIO_DeInit
                0x00000000      0x1c8 Drivers\STM32F4xx_HAL_Driver\Src\stm32f4xx_hal_gpio.o
 .text.HAL_GPIO_ReadPin
                0x00000000       0x30 Drivers\STM32F4xx_HAL_Driver\Src\stm32f4xx_hal_gpio.o
 .text.HAL_GPIO_LockPin
                0x00000000       0x50 Drivers\STM32F4xx_HAL_Driver\Src\stm32f4xx_hal_gpio.o
 .text.HAL_GPIO_EXTI_IRQHandler
                0x00000000       0x30 Drivers\STM32F4xx_HAL_Driver\Src\stm32f4xx_hal_gpio.o
 .text.HAL_GPIO_EXTI_Callback
                0x00000000       0x16 Drivers\STM32F4xx_HAL_Driver\Src\stm32f4xx_hal_gpio.o
 .text          0x00000000        0x0 Drivers\STM32F4xx_HAL_Driver\Src\stm32f4xx_hal_pcd.o
 .data          0x00000000        0x0 Drivers\STM32F4xx_HAL_Driver\Src\stm32f4xx_hal_pcd.o
 .bss           0x00000000        0x0 Drivers\STM32F4xx_HAL_Driver\Src\stm32f4xx_hal_pcd.o
 .text.HAL_PCD_DeInit
                0x00000000       0x38 Drivers\STM32F4xx_HAL_Driver\Src\stm32f4xx_hal_pcd.o
 .text.HAL_PCD_MspInit
                0x00000000       0x14 Drivers\STM32F4xx_HAL_Driver\Src\stm32f4xx_hal_pcd.o
 .text.HAL_PCD_MspDeInit
                0x00000000       0x14 Drivers\STM32F4xx_HAL_Driver\Src\stm32f4xx_hal_pcd.o
 .text.HAL_PCD_Stop
                0x00000000       0x4e Drivers\STM32F4xx_HAL_Driver\Src\stm32f4xx_hal_pcd.o
 .text.HAL_PCD_DataOutStageCallback
                0x00000000       0x18 Drivers\STM32F4xx_HAL_Driver\Src\stm32f4xx_hal_pcd.o
 .text.HAL_PCD_DataInStageCallback
                0x00000000       0x18 Drivers\STM32F4xx_HAL_Driver\Src\stm32f4xx_hal_pcd.o
 .text.HAL_PCD_SetupStageCallback
                0x00000000       0x14 Drivers\STM32F4xx_HAL_Driver\Src\stm32f4xx_hal_pcd.o
 .text.HAL_PCD_SOFCallback
                0x00000000       0x14 Drivers\STM32F4xx_HAL_Driver\Src\stm32f4xx_hal_pcd.o
 .text.HAL_PCD_ResetCallback
                0x00000000       0x14 Drivers\STM32F4xx_HAL_Driver\Src\stm32f4xx_hal_pcd.o
 .text.HAL_PCD_SuspendCallback
                0x00000000       0x14 Drivers\STM32F4xx_HAL_Driver\Src\stm32f4xx_hal_pcd.o
 .text.HAL_PCD_ResumeCallback
                0x00000000       0x14 Drivers\STM32F4xx_HAL_Driver\Src\stm32f4xx_hal_pcd.o
 .text.HAL_PCD_ISOOUTIncompleteCallback
                0x00000000       0x18 Drivers\STM32F4xx_HAL_Driver\Src\stm32f4xx_hal_pcd.o
 .text.HAL_PCD_ISOINIncompleteCallback
                0x00000000       0x18 Drivers\STM32F4xx_HAL_Driver\Src\stm32f4xx_hal_pcd.o
 .text.HAL_PCD_ConnectCallback
                0x00000000       0x14 Drivers\STM32F4xx_HAL_Driver\Src\stm32f4xx_hal_pcd.o
 .text.HAL_PCD_DisconnectCallback
                0x00000000       0x14 Drivers\STM32F4xx_HAL_Driver\Src\stm32f4xx_hal_pcd.o
 .text.HAL_PCD_DevConnect
                0x00000000       0x3a Drivers\STM32F4xx_HAL_Driver\Src\stm32f4xx_hal_pcd.o
 .text.HAL_PCD_DevDisconnect
                0x00000000       0x3a Drivers\STM32F4xx_HAL_Driver\Src\stm32f4xx_hal_pcd.o
 .text.HAL_PCD_EP_Flush
                0x00000000       0x5a Drivers\STM32F4xx_HAL_Driver\Src\stm32f4xx_hal_pcd.o
 .text.HAL_PCD_ActivateRemoteWakeup
                0x00000000       0x42 Drivers\STM32F4xx_HAL_Driver\Src\stm32f4xx_hal_pcd.o
 .text.HAL_PCD_DeActivateRemoteWakeup
                0x00000000       0x32 Drivers\STM32F4xx_HAL_Driver\Src\stm32f4xx_hal_pcd.o
 .text.HAL_PCD_GetState
                0x00000000       0x1c Drivers\STM32F4xx_HAL_Driver\Src\stm32f4xx_hal_pcd.o
 .text          0x00000000        0x0 Drivers\STM32F4xx_HAL_Driver\Src\stm32f4xx_hal_pcd_ex.o
 .data          0x00000000        0x0 Drivers\STM32F4xx_HAL_Driver\Src\stm32f4xx_hal_pcd_ex.o
 .bss           0x00000000        0x0 Drivers\STM32F4xx_HAL_Driver\Src\stm32f4xx_hal_pcd_ex.o
 .text          0x00000000        0x0 Drivers\STM32F4xx_HAL_Driver\Src\stm32f4xx_hal_pwr.o
 .data          0x00000000        0x0 Drivers\STM32F4xx_HAL_Driver\Src\stm32f4xx_hal_pwr.o
 .bss           0x00000000        0x0 Drivers\STM32F4xx_HAL_Driver\Src\stm32f4xx_hal_pwr.o
 .text.HAL_PWR_DeInit
                0x00000000       0x2c Drivers\STM32F4xx_HAL_Driver\Src\stm32f4xx_hal_pwr.o
 .text.HAL_PWR_EnableBkUpAccess
                0x00000000       0x18 Drivers\STM32F4xx_HAL_Driver\Src\stm32f4xx_hal_pwr.o
 .text.HAL_PWR_DisableBkUpAccess
                0x00000000       0x18 Drivers\STM32F4xx_HAL_Driver\Src\stm32f4xx_hal_pwr.o
 .text.HAL_PWR_ConfigPVD
                0x00000000       0xc0 Drivers\STM32F4xx_HAL_Driver\Src\stm32f4xx_hal_pwr.o
 .text.HAL_PWR_EnablePVD
                0x00000000       0x18 Drivers\STM32F4xx_HAL_Driver\Src\stm32f4xx_hal_pwr.o
 .text.HAL_PWR_DisablePVD
                0x00000000       0x18 Drivers\STM32F4xx_HAL_Driver\Src\stm32f4xx_hal_pwr.o
 .text.HAL_PWR_EnableWakeUpPin
                0x00000000       0x24 Drivers\STM32F4xx_HAL_Driver\Src\stm32f4xx_hal_pwr.o
 .text.HAL_PWR_DisableWakeUpPin
                0x00000000       0x28 Drivers\STM32F4xx_HAL_Driver\Src\stm32f4xx_hal_pwr.o
 .text.HAL_PWR_EnterSLEEPMode
                0x00000000       0x38 Drivers\STM32F4xx_HAL_Driver\Src\stm32f4xx_hal_pwr.o
 .text.HAL_PWR_EnterSTOPMode
                0x00000000       0x58 Drivers\STM32F4xx_HAL_Driver\Src\stm32f4xx_hal_pwr.o
 .text.HAL_PWR_EnterSTANDBYMode
                0x00000000       0x30 Drivers\STM32F4xx_HAL_Driver\Src\stm32f4xx_hal_pwr.o
 .text.HAL_PWR_PVD_IRQHandler
                0x00000000       0x24 Drivers\STM32F4xx_HAL_Driver\Src\stm32f4xx_hal_pwr.o
 .text.HAL_PWR_PVDCallback
                0x00000000        0xe Drivers\STM32F4xx_HAL_Driver\Src\stm32f4xx_hal_pwr.o
 .text.HAL_PWR_EnableSleepOnExit
                0x00000000       0x20 Drivers\STM32F4xx_HAL_Driver\Src\stm32f4xx_hal_pwr.o
 .text.HAL_PWR_DisableSleepOnExit
                0x00000000       0x20 Drivers\STM32F4xx_HAL_Driver\Src\stm32f4xx_hal_pwr.o
 .text.HAL_PWR_EnableSEVOnPend
                0x00000000       0x20 Drivers\STM32F4xx_HAL_Driver\Src\stm32f4xx_hal_pwr.o
 .text.HAL_PWR_DisableSEVOnPend
                0x00000000       0x20 Drivers\STM32F4xx_HAL_Driver\Src\stm32f4xx_hal_pwr.o
 .debug_info    0x00000000     0x1002 Drivers\STM32F4xx_HAL_Driver\Src\stm32f4xx_hal_pwr.o
 .debug_abbrev  0x00000000      0x21d Drivers\STM32F4xx_HAL_Driver\Src\stm32f4xx_hal_pwr.o
 .debug_aranges
                0x00000000       0xa0 Drivers\STM32F4xx_HAL_Driver\Src\stm32f4xx_hal_pwr.o
 .debug_ranges  0x00000000       0x90 Drivers\STM32F4xx_HAL_Driver\Src\stm32f4xx_hal_pwr.o
 .debug_line    0x00000000      0x419 Drivers\STM32F4xx_HAL_Driver\Src\stm32f4xx_hal_pwr.o
 .debug_str     0x00000000      0x9dd Drivers\STM32F4xx_HAL_Driver\Src\stm32f4xx_hal_pwr.o
 .comment       0x00000000       0x7d Drivers\STM32F4xx_HAL_Driver\Src\stm32f4xx_hal_pwr.o
 .debug_frame   0x00000000      0x254 Drivers\STM32F4xx_HAL_Driver\Src\stm32f4xx_hal_pwr.o
 .ARM.attributes
                0x00000000       0x39 Drivers\STM32F4xx_HAL_Driver\Src\stm32f4xx_hal_pwr.o
 .text          0x00000000        0x0 Drivers\STM32F4xx_HAL_Driver\Src\stm32f4xx_hal_pwr_ex.o
 .data          0x00000000        0x0 Drivers\STM32F4xx_HAL_Driver\Src\stm32f4xx_hal_pwr_ex.o
 .bss           0x00000000        0x0 Drivers\STM32F4xx_HAL_Driver\Src\stm32f4xx_hal_pwr_ex.o
 .text.HAL_PWREx_EnableBkUpReg
                0x00000000       0x4c Drivers\STM32F4xx_HAL_Driver\Src\stm32f4xx_hal_pwr_ex.o
 .text.HAL_PWREx_DisableBkUpReg
                0x00000000       0x4c Drivers\STM32F4xx_HAL_Driver\Src\stm32f4xx_hal_pwr_ex.o
 .text.HAL_PWREx_EnableFlashPowerDown
                0x00000000       0x18 Drivers\STM32F4xx_HAL_Driver\Src\stm32f4xx_hal_pwr_ex.o
 .text.HAL_PWREx_DisableFlashPowerDown
                0x00000000       0x18 Drivers\STM32F4xx_HAL_Driver\Src\stm32f4xx_hal_pwr_ex.o
 .text.HAL_PWREx_GetVoltageRange
                0x00000000       0x1c Drivers\STM32F4xx_HAL_Driver\Src\stm32f4xx_hal_pwr_ex.o
 .text.HAL_PWREx_ControlVoltageScaling
                0x00000000       0xf4 Drivers\STM32F4xx_HAL_Driver\Src\stm32f4xx_hal_pwr_ex.o
 .text.HAL_PWREx_EnableMainRegulatorLowVoltage
                0x00000000       0x18 Drivers\STM32F4xx_HAL_Driver\Src\stm32f4xx_hal_pwr_ex.o
 .text.HAL_PWREx_DisableMainRegulatorLowVoltage
                0x00000000       0x18 Drivers\STM32F4xx_HAL_Driver\Src\stm32f4xx_hal_pwr_ex.o
 .text.HAL_PWREx_EnableLowRegulatorLowVoltage
                0x00000000       0x18 Drivers\STM32F4xx_HAL_Driver\Src\stm32f4xx_hal_pwr_ex.o
 .text.HAL_PWREx_DisableLowRegulatorLowVoltage
                0x00000000       0x18 Drivers\STM32F4xx_HAL_Driver\Src\stm32f4xx_hal_pwr_ex.o
 .debug_info    0x00000000      0xcd4 Drivers\STM32F4xx_HAL_Driver\Src\stm32f4xx_hal_pwr_ex.o
 .debug_abbrev  0x00000000      0x26b Drivers\STM32F4xx_HAL_Driver\Src\stm32f4xx_hal_pwr_ex.o
 .debug_aranges
                0x00000000       0x68 Drivers\STM32F4xx_HAL_Driver\Src\stm32f4xx_hal_pwr_ex.o
 .debug_ranges  0x00000000       0x58 Drivers\STM32F4xx_HAL_Driver\Src\stm32f4xx_hal_pwr_ex.o
 .debug_line    0x00000000      0x37a Drivers\STM32F4xx_HAL_Driver\Src\stm32f4xx_hal_pwr_ex.o
 .debug_str     0x00000000      0x92c Drivers\STM32F4xx_HAL_Driver\Src\stm32f4xx_hal_pwr_ex.o
 .comment       0x00000000       0x7d Drivers\STM32F4xx_HAL_Driver\Src\stm32f4xx_hal_pwr_ex.o
 .debug_frame   0x00000000      0x15c Drivers\STM32F4xx_HAL_Driver\Src\stm32f4xx_hal_pwr_ex.o
 .ARM.attributes
                0x00000000       0x39 Drivers\STM32F4xx_HAL_Driver\Src\stm32f4xx_hal_pwr_ex.o
 .text          0x00000000        0x0 Drivers\STM32F4xx_HAL_Driver\Src\stm32f4xx_hal_rcc.o
 .data          0x00000000        0x0 Drivers\STM32F4xx_HAL_Driver\Src\stm32f4xx_hal_rcc.o
 .bss           0x00000000        0x0 Drivers\STM32F4xx_HAL_Driver\Src\stm32f4xx_hal_rcc.o
 .text.HAL_RCC_DeInit
                0x00000000       0x10 Drivers\STM32F4xx_HAL_Driver\Src\stm32f4xx_hal_rcc.o
 .text.HAL_RCC_MCOConfig
                0x00000000       0xd0 Drivers\STM32F4xx_HAL_Driver\Src\stm32f4xx_hal_rcc.o
 .text.HAL_RCC_EnableCSS
                0x00000000       0x18 Drivers\STM32F4xx_HAL_Driver\Src\stm32f4xx_hal_rcc.o
 .text.HAL_RCC_DisableCSS
                0x00000000       0x18 Drivers\STM32F4xx_HAL_Driver\Src\stm32f4xx_hal_rcc.o
 .text.HAL_RCC_GetPCLK1Freq
                0x00000000       0x28 Drivers\STM32F4xx_HAL_Driver\Src\stm32f4xx_hal_rcc.o
 .text.HAL_RCC_GetOscConfig
                0x00000000      0x128 Drivers\STM32F4xx_HAL_Driver\Src\stm32f4xx_hal_rcc.o
 .text.HAL_RCC_NMI_IRQHandler
                0x00000000       0x28 Drivers\STM32F4xx_HAL_Driver\Src\stm32f4xx_hal_rcc.o
 .text.HAL_RCC_CSSCallback
                0x00000000        0xe Drivers\STM32F4xx_HAL_Driver\Src\stm32f4xx_hal_rcc.o
 .text          0x00000000        0x0 Drivers\STM32F4xx_HAL_Driver\Src\stm32f4xx_hal_rcc_ex.o
 .data          0x00000000        0x0 Drivers\STM32F4xx_HAL_Driver\Src\stm32f4xx_hal_rcc_ex.o
 .bss           0x00000000        0x0 Drivers\STM32F4xx_HAL_Driver\Src\stm32f4xx_hal_rcc_ex.o
 .text.HAL_RCCEx_PeriphCLKConfig
                0x00000000      0x1e0 Drivers\STM32F4xx_HAL_Driver\Src\stm32f4xx_hal_rcc_ex.o
 .text.HAL_RCCEx_GetPeriphCLKConfig
                0x00000000       0x84 Drivers\STM32F4xx_HAL_Driver\Src\stm32f4xx_hal_rcc_ex.o
 .text.HAL_RCCEx_GetPeriphCLKFreq
                0x00000000       0xbc Drivers\STM32F4xx_HAL_Driver\Src\stm32f4xx_hal_rcc_ex.o
 .text.HAL_RCCEx_SelectLSEMode
                0x00000000       0x3c Drivers\STM32F4xx_HAL_Driver\Src\stm32f4xx_hal_rcc_ex.o
 .text.HAL_RCCEx_EnablePLLI2S
                0x00000000       0x8c Drivers\STM32F4xx_HAL_Driver\Src\stm32f4xx_hal_rcc_ex.o
 .text.HAL_RCCEx_DisablePLLI2S
                0x00000000       0x44 Drivers\STM32F4xx_HAL_Driver\Src\stm32f4xx_hal_rcc_ex.o
 .text.HAL_RCC_DeInit
                0x00000000      0x194 Drivers\STM32F4xx_HAL_Driver\Src\stm32f4xx_hal_rcc_ex.o
 .debug_info    0x00000000      0xdd8 Drivers\STM32F4xx_HAL_Driver\Src\stm32f4xx_hal_rcc_ex.o
 .debug_abbrev  0x00000000      0x221 Drivers\STM32F4xx_HAL_Driver\Src\stm32f4xx_hal_rcc_ex.o
 .debug_aranges
                0x00000000       0x50 Drivers\STM32F4xx_HAL_Driver\Src\stm32f4xx_hal_rcc_ex.o
 .debug_ranges  0x00000000       0x40 Drivers\STM32F4xx_HAL_Driver\Src\stm32f4xx_hal_rcc_ex.o
 .debug_line    0x00000000      0x3fa Drivers\STM32F4xx_HAL_Driver\Src\stm32f4xx_hal_rcc_ex.o
 .debug_str     0x00000000      0x95d Drivers\STM32F4xx_HAL_Driver\Src\stm32f4xx_hal_rcc_ex.o
 .comment       0x00000000       0x7d Drivers\STM32F4xx_HAL_Driver\Src\stm32f4xx_hal_rcc_ex.o
 .debug_frame   0x00000000      0x118 Drivers\STM32F4xx_HAL_Driver\Src\stm32f4xx_hal_rcc_ex.o
 .ARM.attributes
                0x00000000       0x39 Drivers\STM32F4xx_HAL_Driver\Src\stm32f4xx_hal_rcc_ex.o
 .text          0x00000000        0x0 Drivers\STM32F4xx_HAL_Driver\Src\stm32f4xx_hal_tim.o
 .data          0x00000000        0x0 Drivers\STM32F4xx_HAL_Driver\Src\stm32f4xx_hal_tim.o
 .bss           0x00000000        0x0 Drivers\STM32F4xx_HAL_Driver\Src\stm32f4xx_hal_tim.o
 .text.HAL_TIM_Base_DeInit
                0x00000000       0x60 Drivers\STM32F4xx_HAL_Driver\Src\stm32f4xx_hal_tim.o
 .text.HAL_TIM_Base_MspDeInit
                0x00000000       0x14 Drivers\STM32F4xx_HAL_Driver\Src\stm32f4xx_hal_tim.o
 .text.HAL_TIM_Base_Start
                0x00000000       0x36 Drivers\STM32F4xx_HAL_Driver\Src\stm32f4xx_hal_tim.o
 .text.HAL_TIM_Base_Stop
                0x00000000       0x56 Drivers\STM32F4xx_HAL_Driver\Src\stm32f4xx_hal_tim.o
 .text.HAL_TIM_Base_Stop_IT
                0x00000000       0x56 Drivers\STM32F4xx_HAL_Driver\Src\stm32f4xx_hal_tim.o
 .text.HAL_TIM_Base_Start_DMA
                0x00000000       0x98 Drivers\STM32F4xx_HAL_Driver\Src\stm32f4xx_hal_tim.o
 .text.HAL_TIM_Base_Stop_DMA
                0x00000000       0x5e Drivers\STM32F4xx_HAL_Driver\Src\stm32f4xx_hal_tim.o
 .text.HAL_TIM_OC_Init
                0x00000000       0x56 Drivers\STM32F4xx_HAL_Driver\Src\stm32f4xx_hal_tim.o
 .text.HAL_TIM_OC_DeInit
                0x00000000       0x60 Drivers\STM32F4xx_HAL_Driver\Src\stm32f4xx_hal_tim.o
 .text.HAL_TIM_OC_MspInit
                0x00000000       0x14 Drivers\STM32F4xx_HAL_Driver\Src\stm32f4xx_hal_tim.o
 .text.HAL_TIM_OC_MspDeInit
                0x00000000       0x14 Drivers\STM32F4xx_HAL_Driver\Src\stm32f4xx_hal_tim.o
 .text.HAL_TIM_OC_Start
                0x00000000       0x50 Drivers\STM32F4xx_HAL_Driver\Src\stm32f4xx_hal_tim.o
 .text.HAL_TIM_OC_Stop
                0x00000000       0x90 Drivers\STM32F4xx_HAL_Driver\Src\stm32f4xx_hal_tim.o
 .text.HAL_TIM_OC_Start_IT
                0x00000000       0xdc Drivers\STM32F4xx_HAL_Driver\Src\stm32f4xx_hal_tim.o
 .text.HAL_TIM_OC_Stop_IT
                0x00000000      0x11c Drivers\STM32F4xx_HAL_Driver\Src\stm32f4xx_hal_tim.o
 .text.HAL_TIM_OC_Start_DMA
                0x00000000      0x1ac Drivers\STM32F4xx_HAL_Driver\Src\stm32f4xx_hal_tim.o
 .text.HAL_TIM_OC_Stop_DMA
                0x00000000      0x124 Drivers\STM32F4xx_HAL_Driver\Src\stm32f4xx_hal_tim.o
 .text.HAL_TIM_PWM_Init
                0x00000000       0x56 Drivers\STM32F4xx_HAL_Driver\Src\stm32f4xx_hal_tim.o
 .text.HAL_TIM_PWM_DeInit
                0x00000000       0x60 Drivers\STM32F4xx_HAL_Driver\Src\stm32f4xx_hal_tim.o
 .text.HAL_TIM_PWM_MspInit
                0x00000000       0x14 Drivers\STM32F4xx_HAL_Driver\Src\stm32f4xx_hal_tim.o
 .text.HAL_TIM_PWM_MspDeInit
                0x00000000       0x14 Drivers\STM32F4xx_HAL_Driver\Src\stm32f4xx_hal_tim.o
 .text.HAL_TIM_PWM_Start
                0x00000000       0x50 Drivers\STM32F4xx_HAL_Driver\Src\stm32f4xx_hal_tim.o
 .text.HAL_TIM_PWM_Stop
                0x00000000       0x98 Drivers\STM32F4xx_HAL_Driver\Src\stm32f4xx_hal_tim.o
 .text.HAL_TIM_PWM_Start_IT
                0x00000000       0xdc Drivers\STM32F4xx_HAL_Driver\Src\stm32f4xx_hal_tim.o
 .text.HAL_TIM_PWM_Stop_IT
                0x00000000      0x11c Drivers\STM32F4xx_HAL_Driver\Src\stm32f4xx_hal_tim.o
 .text.HAL_TIM_PWM_Start_DMA
                0x00000000      0x1ac Drivers\STM32F4xx_HAL_Driver\Src\stm32f4xx_hal_tim.o
 .text.HAL_TIM_PWM_Stop_DMA
                0x00000000      0x124 Drivers\STM32F4xx_HAL_Driver\Src\stm32f4xx_hal_tim.o
 .text.HAL_TIM_IC_Init
                0x00000000       0x56 Drivers\STM32F4xx_HAL_Driver\Src\stm32f4xx_hal_tim.o
 .text.HAL_TIM_IC_DeInit
                0x00000000       0x60 Drivers\STM32F4xx_HAL_Driver\Src\stm32f4xx_hal_tim.o
 .text.HAL_TIM_IC_MspInit
                0x00000000       0x14 Drivers\STM32F4xx_HAL_Driver\Src\stm32f4xx_hal_tim.o
 .text.HAL_TIM_IC_MspDeInit
                0x00000000       0x14 Drivers\STM32F4xx_HAL_Driver\Src\stm32f4xx_hal_tim.o
 .text.HAL_TIM_IC_Start
                0x00000000       0x32 Drivers\STM32F4xx_HAL_Driver\Src\stm32f4xx_hal_tim.o
 .text.HAL_TIM_IC_Stop
                0x00000000       0x52 Drivers\STM32F4xx_HAL_Driver\Src\stm32f4xx_hal_tim.o
 .text.HAL_TIM_IC_Start_IT
                0x00000000       0xc0 Drivers\STM32F4xx_HAL_Driver\Src\stm32f4xx_hal_tim.o
 .text.HAL_TIM_IC_Stop_IT
                0x00000000       0xe0 Drivers\STM32F4xx_HAL_Driver\Src\stm32f4xx_hal_tim.o
 .text.HAL_TIM_IC_Start_DMA
                0x00000000      0x190 Drivers\STM32F4xx_HAL_Driver\Src\stm32f4xx_hal_tim.o
 .text.HAL_TIM_IC_Stop_DMA
                0x00000000       0xe8 Drivers\STM32F4xx_HAL_Driver\Src\stm32f4xx_hal_tim.o
 .text.HAL_TIM_OnePulse_Init
                0x00000000       0x78 Drivers\STM32F4xx_HAL_Driver\Src\stm32f4xx_hal_tim.o
 .text.HAL_TIM_OnePulse_DeInit
                0x00000000       0x60 Drivers\STM32F4xx_HAL_Driver\Src\stm32f4xx_hal_tim.o
 .text.HAL_TIM_OnePulse_MspInit
                0x00000000       0x14 Drivers\STM32F4xx_HAL_Driver\Src\stm32f4xx_hal_tim.o
 .text.HAL_TIM_OnePulse_MspDeInit
                0x00000000       0x14 Drivers\STM32F4xx_HAL_Driver\Src\stm32f4xx_hal_tim.o
 .text.HAL_TIM_OnePulse_Start
                0x00000000       0x50 Drivers\STM32F4xx_HAL_Driver\Src\stm32f4xx_hal_tim.o
 .text.HAL_TIM_OnePulse_Stop
                0x00000000       0xa0 Drivers\STM32F4xx_HAL_Driver\Src\stm32f4xx_hal_tim.o
 .text.HAL_TIM_OnePulse_Start_IT
                0x00000000       0x70 Drivers\STM32F4xx_HAL_Driver\Src\stm32f4xx_hal_tim.o
 .text.HAL_TIM_OnePulse_Stop_IT
                0x00000000       0xc0 Drivers\STM32F4xx_HAL_Driver\Src\stm32f4xx_hal_tim.o
 .text.HAL_TIM_Encoder_Init
                0x00000000      0x12c Drivers\STM32F4xx_HAL_Driver\Src\stm32f4xx_hal_tim.o
 .text.HAL_TIM_Encoder_DeInit
                0x00000000       0x60 Drivers\STM32F4xx_HAL_Driver\Src\stm32f4xx_hal_tim.o
 .text.HAL_TIM_Encoder_MspInit
                0x00000000       0x14 Drivers\STM32F4xx_HAL_Driver\Src\stm32f4xx_hal_tim.o
 .text.HAL_TIM_Encoder_MspDeInit
                0x00000000       0x14 Drivers\STM32F4xx_HAL_Driver\Src\stm32f4xx_hal_tim.o
 .text.HAL_TIM_Encoder_Start
                0x00000000       0x6e Drivers\STM32F4xx_HAL_Driver\Src\stm32f4xx_hal_tim.o
 .text.HAL_TIM_Encoder_Stop
                0x00000000       0x8e Drivers\STM32F4xx_HAL_Driver\Src\stm32f4xx_hal_tim.o
 .text.HAL_TIM_Encoder_Start_IT
                0x00000000       0xae Drivers\STM32F4xx_HAL_Driver\Src\stm32f4xx_hal_tim.o
 .text.HAL_TIM_Encoder_Stop_IT
                0x00000000       0xd4 Drivers\STM32F4xx_HAL_Driver\Src\stm32f4xx_hal_tim.o
 .text.HAL_TIM_Encoder_Start_DMA
                0x00000000      0x1a8 Drivers\STM32F4xx_HAL_Driver\Src\stm32f4xx_hal_tim.o
 .text.HAL_TIM_Encoder_Stop_DMA
                0x00000000       0xd4 Drivers\STM32F4xx_HAL_Driver\Src\stm32f4xx_hal_tim.o
 .text.HAL_TIM_OC_ConfigChannel
                0x00000000       0xc0 Drivers\STM32F4xx_HAL_Driver\Src\stm32f4xx_hal_tim.o
 .text.HAL_TIM_IC_ConfigChannel
                0x00000000      0x138 Drivers\STM32F4xx_HAL_Driver\Src\stm32f4xx_hal_tim.o
 .text.HAL_TIM_PWM_ConfigChannel
                0x00000000      0x18c Drivers\STM32F4xx_HAL_Driver\Src\stm32f4xx_hal_tim.o
 .text.HAL_TIM_OnePulse_ConfigChannel
                0x00000000      0x180 Drivers\STM32F4xx_HAL_Driver\Src\stm32f4xx_hal_tim.o
 .text.HAL_TIM_DMABurst_WriteStart
                0x00000000      0x1e4 Drivers\STM32F4xx_HAL_Driver\Src\stm32f4xx_hal_tim.o
 .text.HAL_TIM_DMABurst_WriteStop
                0x00000000       0xb0 Drivers\STM32F4xx_HAL_Driver\Src\stm32f4xx_hal_tim.o
 .text.HAL_TIM_DMABurst_ReadStart
                0x00000000      0x1e4 Drivers\STM32F4xx_HAL_Driver\Src\stm32f4xx_hal_tim.o
 .text.HAL_TIM_DMABurst_ReadStop
                0x00000000       0xb0 Drivers\STM32F4xx_HAL_Driver\Src\stm32f4xx_hal_tim.o
 .text.HAL_TIM_GenerateEvent
                0x00000000       0x4e Drivers\STM32F4xx_HAL_Driver\Src\stm32f4xx_hal_tim.o
 .text.HAL_TIM_ConfigOCrefClear
                0x00000000      0x154 Drivers\STM32F4xx_HAL_Driver\Src\stm32f4xx_hal_tim.o
 .text.HAL_TIM_ConfigClockSource
                0x00000000      0x1b6 Drivers\STM32F4xx_HAL_Driver\Src\stm32f4xx_hal_tim.o
 .text.HAL_TIM_ConfigTI1Input
                0x00000000       0x3c Drivers\STM32F4xx_HAL_Driver\Src\stm32f4xx_hal_tim.o
 .text.HAL_TIM_SlaveConfigSynchronization
                0x00000000       0x6a Drivers\STM32F4xx_HAL_Driver\Src\stm32f4xx_hal_tim.o
 .text.HAL_TIM_SlaveConfigSynchronization_IT
                0x00000000       0x6a Drivers\STM32F4xx_HAL_Driver\Src\stm32f4xx_hal_tim.o
 .text.HAL_TIM_ReadCapturedValue
                0x00000000       0xa4 Drivers\STM32F4xx_HAL_Driver\Src\stm32f4xx_hal_tim.o
 .text.HAL_TIM_PeriodElapsedCallback
                0x00000000       0x14 Drivers\STM32F4xx_HAL_Driver\Src\stm32f4xx_hal_tim.o
 .text.HAL_TIM_ErrorCallback
                0x00000000       0x14 Drivers\STM32F4xx_HAL_Driver\Src\stm32f4xx_hal_tim.o
 .text.HAL_TIM_Base_GetState
                0x00000000       0x1c Drivers\STM32F4xx_HAL_Driver\Src\stm32f4xx_hal_tim.o
 .text.HAL_TIM_OC_GetState
                0x00000000       0x1c Drivers\STM32F4xx_HAL_Driver\Src\stm32f4xx_hal_tim.o
 .text.HAL_TIM_PWM_GetState
                0x00000000       0x1c Drivers\STM32F4xx_HAL_Driver\Src\stm32f4xx_hal_tim.o
 .text.HAL_TIM_IC_GetState
                0x00000000       0x1c Drivers\STM32F4xx_HAL_Driver\Src\stm32f4xx_hal_tim.o
 .text.HAL_TIM_OnePulse_GetState
                0x00000000       0x1c Drivers\STM32F4xx_HAL_Driver\Src\stm32f4xx_hal_tim.o
 .text.HAL_TIM_Encoder_GetState
                0x00000000       0x1c Drivers\STM32F4xx_HAL_Driver\Src\stm32f4xx_hal_tim.o
 .text.TIM_TI1_SetConfig
                0x00000000       0xe0 Drivers\STM32F4xx_HAL_Driver\Src\stm32f4xx_hal_tim.o
 .text.TIM_OC2_SetConfig
                0x00000000       0xdc Drivers\STM32F4xx_HAL_Driver\Src\stm32f4xx_hal_tim.o
 .text.TIM_DMADelayPulseCplt
                0x00000000       0x70 Drivers\STM32F4xx_HAL_Driver\Src\stm32f4xx_hal_tim.o
 .text.TIM_DMAError
                0x00000000       0x24 Drivers\STM32F4xx_HAL_Driver\Src\stm32f4xx_hal_tim.o
 .text.TIM_DMACaptureCplt
                0x00000000       0x70 Drivers\STM32F4xx_HAL_Driver\Src\stm32f4xx_hal_tim.o
 .text.TIM_CCxChannelCmd
                0x00000000       0x46 Drivers\STM32F4xx_HAL_Driver\Src\stm32f4xx_hal_tim.o
 .text.TIM_DMAPeriodElapsedCplt
                0x00000000       0x24 Drivers\STM32F4xx_HAL_Driver\Src\stm32f4xx_hal_tim.o
 .text.TIM_DMATriggerCplt
                0x00000000       0x24 Drivers\STM32F4xx_HAL_Driver\Src\stm32f4xx_hal_tim.o
 .text.TIM_OC1_SetConfig
                0x00000000       0xd0 Drivers\STM32F4xx_HAL_Driver\Src\stm32f4xx_hal_tim.o
 .text.TIM_OC3_SetConfig
                0x00000000       0xd8 Drivers\STM32F4xx_HAL_Driver\Src\stm32f4xx_hal_tim.o
 .text.TIM_OC4_SetConfig
                0x00000000       0xac Drivers\STM32F4xx_HAL_Driver\Src\stm32f4xx_hal_tim.o
 .text.TIM_SlaveTimer_SetConfig
                0x00000000      0x116 Drivers\STM32F4xx_HAL_Driver\Src\stm32f4xx_hal_tim.o
 .text.TIM_TI1_ConfigInputStage
                0x00000000       0x66 Drivers\STM32F4xx_HAL_Driver\Src\stm32f4xx_hal_tim.o
 .text.TIM_TI2_SetConfig
                0x00000000       0x82 Drivers\STM32F4xx_HAL_Driver\Src\stm32f4xx_hal_tim.o
 .text.TIM_TI2_ConfigInputStage
                0x00000000       0x68 Drivers\STM32F4xx_HAL_Driver\Src\stm32f4xx_hal_tim.o
 .text.TIM_TI3_SetConfig
                0x00000000       0x80 Drivers\STM32F4xx_HAL_Driver\Src\stm32f4xx_hal_tim.o
 .text.TIM_TI4_SetConfig
                0x00000000       0x82 Drivers\STM32F4xx_HAL_Driver\Src\stm32f4xx_hal_tim.o
 .text.TIM_ITRx_SetConfig
                0x00000000       0x40 Drivers\STM32F4xx_HAL_Driver\Src\stm32f4xx_hal_tim.o
 .text.TIM_ETR_SetConfig
                0x00000000       0x44 Drivers\STM32F4xx_HAL_Driver\Src\stm32f4xx_hal_tim.o
 .text          0x00000000        0x0 Drivers\STM32F4xx_HAL_Driver\Src\stm32f4xx_hal_tim_ex.o
 .data          0x00000000        0x0 Drivers\STM32F4xx_HAL_Driver\Src\stm32f4xx_hal_tim_ex.o
 .bss           0x00000000        0x0 Drivers\STM32F4xx_HAL_Driver\Src\stm32f4xx_hal_tim_ex.o
 .text.HAL_TIMEx_HallSensor_Init
                0x00000000      0x116 Drivers\STM32F4xx_HAL_Driver\Src\stm32f4xx_hal_tim_ex.o
 .text.HAL_TIMEx_HallSensor_DeInit
                0x00000000       0x60 Drivers\STM32F4xx_HAL_Driver\Src\stm32f4xx_hal_tim_ex.o
 .text.HAL_TIMEx_HallSensor_MspInit
                0x00000000       0x14 Drivers\STM32F4xx_HAL_Driver\Src\stm32f4xx_hal_tim_ex.o
 .text.HAL_TIMEx_HallSensor_MspDeInit
                0x00000000       0x14 Drivers\STM32F4xx_HAL_Driver\Src\stm32f4xx_hal_tim_ex.o
 .text.HAL_TIMEx_HallSensor_Start
                0x00000000       0x30 Drivers\STM32F4xx_HAL_Driver\Src\stm32f4xx_hal_tim_ex.o
 .text.HAL_TIMEx_HallSensor_Stop
                0x00000000       0x50 Drivers\STM32F4xx_HAL_Driver\Src\stm32f4xx_hal_tim_ex.o
 .text.HAL_TIMEx_HallSensor_Start_IT
                0x00000000       0x40 Drivers\STM32F4xx_HAL_Driver\Src\stm32f4xx_hal_tim_ex.o
 .text.HAL_TIMEx_HallSensor_Stop_IT
                0x00000000       0x60 Drivers\STM32F4xx_HAL_Driver\Src\stm32f4xx_hal_tim_ex.o
 .text.HAL_TIMEx_HallSensor_Start_DMA
                0x00000000       0xa8 Drivers\STM32F4xx_HAL_Driver\Src\stm32f4xx_hal_tim_ex.o
 .text.HAL_TIMEx_HallSensor_Stop_DMA
                0x00000000       0x60 Drivers\STM32F4xx_HAL_Driver\Src\stm32f4xx_hal_tim_ex.o
 .text.HAL_TIMEx_OCN_Start
                0x00000000       0x42 Drivers\STM32F4xx_HAL_Driver\Src\stm32f4xx_hal_tim_ex.o
 .text.HAL_TIMEx_OCN_Stop
                0x00000000       0x82 Drivers\STM32F4xx_HAL_Driver\Src\stm32f4xx_hal_tim_ex.o
 .text.HAL_TIMEx_OCN_Start_IT
                0x00000000       0xe0 Drivers\STM32F4xx_HAL_Driver\Src\stm32f4xx_hal_tim_ex.o
 .text.HAL_TIMEx_OCN_Stop_IT
                0x00000000      0x130 Drivers\STM32F4xx_HAL_Driver\Src\stm32f4xx_hal_tim_ex.o
 .text.HAL_TIMEx_OCN_Start_DMA
                0x00000000      0x1a0 Drivers\STM32F4xx_HAL_Driver\Src\stm32f4xx_hal_tim_ex.o
 .text.HAL_TIMEx_OCN_Stop_DMA
                0x00000000      0x118 Drivers\STM32F4xx_HAL_Driver\Src\stm32f4xx_hal_tim_ex.o
 .text.HAL_TIMEx_PWMN_Start
                0x00000000       0x42 Drivers\STM32F4xx_HAL_Driver\Src\stm32f4xx_hal_tim_ex.o
 .text.HAL_TIMEx_PWMN_Stop
                0x00000000       0x82 Drivers\STM32F4xx_HAL_Driver\Src\stm32f4xx_hal_tim_ex.o
 .text.HAL_TIMEx_PWMN_Start_IT
                0x00000000       0xe0 Drivers\STM32F4xx_HAL_Driver\Src\stm32f4xx_hal_tim_ex.o
 .text.HAL_TIMEx_PWMN_Stop_IT
                0x00000000      0x130 Drivers\STM32F4xx_HAL_Driver\Src\stm32f4xx_hal_tim_ex.o
 .text.HAL_TIMEx_PWMN_Start_DMA
                0x00000000      0x1a0 Drivers\STM32F4xx_HAL_Driver\Src\stm32f4xx_hal_tim_ex.o
 .text.HAL_TIMEx_PWMN_Stop_DMA
                0x00000000      0x118 Drivers\STM32F4xx_HAL_Driver\Src\stm32f4xx_hal_tim_ex.o
 .text.HAL_TIMEx_OnePulseN_Start
                0x00000000       0x32 Drivers\STM32F4xx_HAL_Driver\Src\stm32f4xx_hal_tim_ex.o
 .text.HAL_TIMEx_OnePulseN_Stop
                0x00000000       0x82 Drivers\STM32F4xx_HAL_Driver\Src\stm32f4xx_hal_tim_ex.o
 .text.HAL_TIMEx_OnePulseN_Start_IT
                0x00000000       0x52 Drivers\STM32F4xx_HAL_Driver\Src\stm32f4xx_hal_tim_ex.o
 .text.HAL_TIMEx_OnePulseN_Stop_IT
                0x00000000       0xa2 Drivers\STM32F4xx_HAL_Driver\Src\stm32f4xx_hal_tim_ex.o
 .text.HAL_TIMEx_ConfigCommutationEvent
                0x00000000       0xa0 Drivers\STM32F4xx_HAL_Driver\Src\stm32f4xx_hal_tim_ex.o
 .text.HAL_TIMEx_ConfigCommutationEvent_IT
                0x00000000       0xb0 Drivers\STM32F4xx_HAL_Driver\Src\stm32f4xx_hal_tim_ex.o
 .text.HAL_TIMEx_ConfigCommutationEvent_DMA
                0x00000000       0xc8 Drivers\STM32F4xx_HAL_Driver\Src\stm32f4xx_hal_tim_ex.o
 .text.HAL_TIMEx_MasterConfigSynchronization
                0x00000000       0x8a Drivers\STM32F4xx_HAL_Driver\Src\stm32f4xx_hal_tim_ex.o
 .text.HAL_TIMEx_ConfigBreakDeadTime
                0x00000000       0xb2 Drivers\STM32F4xx_HAL_Driver\Src\stm32f4xx_hal_tim_ex.o
 .text.HAL_TIMEx_RemapConfig
                0x00000000       0x46 Drivers\STM32F4xx_HAL_Driver\Src\stm32f4xx_hal_tim_ex.o
 .text.HAL_TIMEx_HallSensor_GetState
                0x00000000       0x1c Drivers\STM32F4xx_HAL_Driver\Src\stm32f4xx_hal_tim_ex.o
 .text.TIMEx_DMACommutationCplt
                0x00000000       0x24 Drivers\STM32F4xx_HAL_Driver\Src\stm32f4xx_hal_tim_ex.o
 .text.TIM_CCxNChannelCmd
                0x00000000       0x46 Drivers\STM32F4xx_HAL_Driver\Src\stm32f4xx_hal_tim_ex.o
 .text          0x00000000        0x0 Drivers\STM32F4xx_HAL_Driver\Src\stm32f4xx_ll_usb.o
 .data          0x00000000        0x0 Drivers\STM32F4xx_HAL_Driver\Src\stm32f4xx_ll_usb.o
 .bss           0x00000000        0x0 Drivers\STM32F4xx_HAL_Driver\Src\stm32f4xx_ll_usb.o
 .text.USB_ActivateDedicatedEndpoint
                0x00000000      0x188 Drivers\STM32F4xx_HAL_Driver\Src\stm32f4xx_ll_usb.o
 .text.USB_DeactivateDedicatedEndpoint
                0x00000000      0x184 Drivers\STM32F4xx_HAL_Driver\Src\stm32f4xx_ll_usb.o
 .text.USB_StopDevice
                0x00000000       0x88 Drivers\STM32F4xx_HAL_Driver\Src\stm32f4xx_ll_usb.o
 .text.USB_ClearInterrupts
                0x00000000       0x22 Drivers\STM32F4xx_HAL_Driver\Src\stm32f4xx_ll_usb.o
 .text.USB_HostInit
                0x00000000      0x158 Drivers\STM32F4xx_HAL_Driver\Src\stm32f4xx_ll_usb.o
 .text.USB_InitFSLSPClkSel
                0x00000000       0x74 Drivers\STM32F4xx_HAL_Driver\Src\stm32f4xx_ll_usb.o
 .text.USB_ResetPort
                0x00000000       0x4a Drivers\STM32F4xx_HAL_Driver\Src\stm32f4xx_ll_usb.o
 .text.USB_DriveVbus
                0x00000000       0x6e Drivers\STM32F4xx_HAL_Driver\Src\stm32f4xx_ll_usb.o
 .text.USB_GetHostSpeed
                0x00000000       0x26 Drivers\STM32F4xx_HAL_Driver\Src\stm32f4xx_ll_usb.o
 .text.USB_GetCurrentFrame
                0x00000000       0x1e Drivers\STM32F4xx_HAL_Driver\Src\stm32f4xx_ll_usb.o
 .text.USB_HC_Init
                0x00000000      0x1f8 Drivers\STM32F4xx_HAL_Driver\Src\stm32f4xx_ll_usb.o
 .text.USB_HC_StartXfer
                0x00000000      0x27c Drivers\STM32F4xx_HAL_Driver\Src\stm32f4xx_ll_usb.o
 .text.USB_HC_ReadInterrupt
                0x00000000       0x1e Drivers\STM32F4xx_HAL_Driver\Src\stm32f4xx_ll_usb.o
 .text.USB_HC_Halt
                0x00000000      0x1d2 Drivers\STM32F4xx_HAL_Driver\Src\stm32f4xx_ll_usb.o
 .text.USB_DoPing
                0x00000000       0x78 Drivers\STM32F4xx_HAL_Driver\Src\stm32f4xx_ll_usb.o
 .text.USB_StopHost
                0x00000000      0x108 Drivers\STM32F4xx_HAL_Driver\Src\stm32f4xx_ll_usb.o
 .bss.debug.8785
                0x00000000        0x4 Drivers\STM32F4xx_HAL_Driver\Src\stm32f4xx_ll_usb.o
 .text          0x00000000        0x0 Middlewares\ST\STM32_USB_Device_Library\App\Src\usb_device.o
 .data          0x00000000        0x0 Middlewares\ST\STM32_USB_Device_Library\App\Src\usb_device.o
 .bss           0x00000000        0x0 Middlewares\ST\STM32_USB_Device_Library\App\Src\usb_device.o
 .text          0x00000000        0x0 Middlewares\ST\STM32_USB_Device_Library\App\Src\usbd_conf.o
 .data          0x00000000        0x0 Middlewares\ST\STM32_USB_Device_Library\App\Src\usbd_conf.o
 .bss           0x00000000        0x0 Middlewares\ST\STM32_USB_Device_Library\App\Src\usbd_conf.o
 .text.HAL_PCD_MspDeInit
                0x00000000       0x40 Middlewares\ST\STM32_USB_Device_Library\App\Src\usbd_conf.o
 .text.USBD_LL_DeInit
                0x00000000       0x64 Middlewares\ST\STM32_USB_Device_Library\App\Src\usbd_conf.o
 .text.USBD_LL_Stop
                0x00000000       0x64 Middlewares\ST\STM32_USB_Device_Library\App\Src\usbd_conf.o
 .text.USBD_LL_FlushEP
                0x00000000       0x7c Middlewares\ST\STM32_USB_Device_Library\App\Src\usbd_conf.o
 .text.USBD_LL_Delay
                0x00000000       0x16 Middlewares\ST\STM32_USB_Device_Library\App\Src\usbd_conf.o
 .text          0x00000000        0x0 Middlewares\ST\STM32_USB_Device_Library\App\Src\usbd_desc.o
 .data          0x00000000        0x0 Middlewares\ST\STM32_USB_Device_Library\App\Src\usbd_desc.o
 .bss           0x00000000        0x0 Middlewares\ST\STM32_USB_Device_Library\App\Src\usbd_desc.o
 .text          0x00000000        0x0 Middlewares\ST\STM32_USB_Device_Library\App\Src\usbd_rndis_if.o
 .data          0x00000000        0x0 Middlewares\ST\STM32_USB_Device_Library\App\Src\usbd_rndis_if.o
 .bss           0x00000000        0x0 Middlewares\ST\STM32_USB_Device_Library\App\Src\usbd_rndis_if.o
 .text.xGetPhyLinkStatus
                0x00000000       0x2c Middlewares\ST\STM32_USB_Device_Library\App\Src\usbd_rndis_if.o
 .text          0x00000000        0x0 Middlewares\ST\STM32_USB_Device_Library\Class\Composite\Src\usbd_composite.o
 .data          0x00000000        0x0 Middlewares\ST\STM32_USB_Device_Library\Class\Composite\Src\usbd_composite.o
 .bss           0x00000000        0x0 Middlewares\ST\STM32_USB_Device_Library\Class\Composite\Src\usbd_composite.o
 .data.USBD_COMPOSITE_CfgHSDesc
                0x00000000        0x9 Middlewares\ST\STM32_USB_Device_Library\Class\Composite\Src\usbd_composite.o
 .data.USBD_COMPOSITE_OtherSpeedCfgDesc
                0x00000000        0x9 Middlewares\ST\STM32_USB_Device_Library\Class\Composite\Src\usbd_composite.o
 .text.USBD_COMPOSITE_GetClassIndexFromEP
                0x00000000       0xd8 Middlewares\ST\STM32_USB_Device_Library\Class\Composite\Src\usbd_composite.o
 .text          0x00000000        0x0 Middlewares\ST\STM32_USB_Device_Library\Class\RNDIS\Src\usbd_rndis.o
 .data          0x00000000        0x0 Middlewares\ST\STM32_USB_Device_Library\Class\RNDIS\Src\usbd_rndis.o
 .bss           0x00000000        0x0 Middlewares\ST\STM32_USB_Device_Library\Class\RNDIS\Src\usbd_rndis.o
 .text          0x00000000        0x0 Middlewares\ST\STM32_USB_Device_Library\Core\Src\usbd_core.o
 .data          0x00000000        0x0 Middlewares\ST\STM32_USB_Device_Library\Core\Src\usbd_core.o
 .bss           0x00000000        0x0 Middlewares\ST\STM32_USB_Device_Library\Core\Src\usbd_core.o
 .text.USBD_DeInit
                0x00000000       0x3a Middlewares\ST\STM32_USB_Device_Library\Core\Src\usbd_core.o
 .text.USBD_Stop
                0x00000000       0x2c Middlewares\ST\STM32_USB_Device_Library\Core\Src\usbd_core.o
 .text          0x00000000        0x0 Middlewares\ST\STM32_USB_Device_Library\Core\Src\usbd_ctlreq.o
 .data          0x00000000        0x0 Middlewares\ST\STM32_USB_Device_Library\Core\Src\usbd_ctlreq.o
 .bss           0x00000000        0x0 Middlewares\ST\STM32_USB_Device_Library\Core\Src\usbd_ctlreq.o
 .text          0x00000000        0x0 Middlewares\ST\STM32_USB_Device_Library\Core\Src\usbd_ioreq.o
 .data          0x00000000        0x0 Middlewares\ST\STM32_USB_Device_Library\Core\Src\usbd_ioreq.o
 .bss           0x00000000        0x0 Middlewares\ST\STM32_USB_Device_Library\Core\Src\usbd_ioreq.o
 .text.USBD_GetRxCount
                0x00000000       0x22 Middlewares\ST\STM32_USB_Device_Library\Core\Src\usbd_ioreq.o
 .text          0x00000000        0x0 Middlewares\Third_Party\FreeRTOS\Source\CMSIS_RTOS\cmsis_os.o
 .data          0x00000000        0x0 Middlewares\Third_Party\FreeRTOS\Source\CMSIS_RTOS\cmsis_os.o
 .bss           0x00000000        0x0 Middlewares\Third_Party\FreeRTOS\Source\CMSIS_RTOS\cmsis_os.o
 .text.makeCmsisPriority
                0x00000000       0x2c Middlewares\Third_Party\FreeRTOS\Source\CMSIS_RTOS\cmsis_os.o
 .text.inHandlerMode
                0x00000000       0x24 Middlewares\Third_Party\FreeRTOS\Source\CMSIS_RTOS\cmsis_os.o
 .text.osKernelRunning
                0x00000000       0x18 Middlewares\Third_Party\FreeRTOS\Source\CMSIS_RTOS\cmsis_os.o
 .text.osKernelSysTick
                0x00000000       0x20 Middlewares\Third_Party\FreeRTOS\Source\CMSIS_RTOS\cmsis_os.o
 .text.osThreadGetId
                0x00000000        0xe Middlewares\Third_Party\FreeRTOS\Source\CMSIS_RTOS\cmsis_os.o
 .text.osThreadTerminate
                0x00000000       0x18 Middlewares\Third_Party\FreeRTOS\Source\CMSIS_RTOS\cmsis_os.o
 .text.osThreadYield
                0x00000000       0x24 Middlewares\Third_Party\FreeRTOS\Source\CMSIS_RTOS\cmsis_os.o
 .text.osThreadSetPriority
                0x00000000       0x2a Middlewares\Third_Party\FreeRTOS\Source\CMSIS_RTOS\cmsis_os.o
 .text.osThreadGetPriority
                0x00000000       0x3c Middlewares\Third_Party\FreeRTOS\Source\CMSIS_RTOS\cmsis_os.o
 .text.osTimerCreate
                0x00000000       0x1c Middlewares\Third_Party\FreeRTOS\Source\CMSIS_RTOS\cmsis_os.o
 .text.osTimerStart
                0x00000000       0x20 Middlewares\Third_Party\FreeRTOS\Source\CMSIS_RTOS\cmsis_os.o
 .text.osTimerStop
                0x00000000       0x1e Middlewares\Third_Party\FreeRTOS\Source\CMSIS_RTOS\cmsis_os.o
 .text.osTimerDelete
                0x00000000       0x1e Middlewares\Third_Party\FreeRTOS\Source\CMSIS_RTOS\cmsis_os.o
 .text.osSignalSet
                0x00000000       0x80 Middlewares\Third_Party\FreeRTOS\Source\CMSIS_RTOS\cmsis_os.o
 .text.osSignalWait
                0x00000000       0x98 Middlewares\Third_Party\FreeRTOS\Source\CMSIS_RTOS\cmsis_os.o
 .text.osMutexCreate
                0x00000000       0x18 Middlewares\Third_Party\FreeRTOS\Source\CMSIS_RTOS\cmsis_os.o
 .text.osMutexWait
                0x00000000       0xa0 Middlewares\Third_Party\FreeRTOS\Source\CMSIS_RTOS\cmsis_os.o
 .text.osMutexRelease
                0x00000000       0x6c Middlewares\Third_Party\FreeRTOS\Source\CMSIS_RTOS\cmsis_os.o
 .text.osMutexDelete
                0x00000000       0x26 Middlewares\Third_Party\FreeRTOS\Source\CMSIS_RTOS\cmsis_os.o
 .text.osSemaphoreCreate
                0x00000000       0x48 Middlewares\Third_Party\FreeRTOS\Source\CMSIS_RTOS\cmsis_os.o
 .text.osSemaphoreWait
                0x00000000       0xa0 Middlewares\Third_Party\FreeRTOS\Source\CMSIS_RTOS\cmsis_os.o
 .text.osSemaphoreRelease
                0x00000000       0x6c Middlewares\Third_Party\FreeRTOS\Source\CMSIS_RTOS\cmsis_os.o
 .text.osSemaphoreDelete
                0x00000000       0x26 Middlewares\Third_Party\FreeRTOS\Source\CMSIS_RTOS\cmsis_os.o
 .text.osPoolCreate
                0x00000000       0xba Middlewares\Third_Party\FreeRTOS\Source\CMSIS_RTOS\cmsis_os.o
 .text.osPoolAlloc
                0x00000000       0xc4 Middlewares\Third_Party\FreeRTOS\Source\CMSIS_RTOS\cmsis_os.o
 .text.osPoolCAlloc
                0x00000000       0x2a Middlewares\Third_Party\FreeRTOS\Source\CMSIS_RTOS\cmsis_os.o
 .text.osPoolFree
                0x00000000       0x82 Middlewares\Third_Party\FreeRTOS\Source\CMSIS_RTOS\cmsis_os.o
 .text.osMessageCreate
                0x00000000       0x24 Middlewares\Third_Party\FreeRTOS\Source\CMSIS_RTOS\cmsis_os.o
 .text.osMessagePut
                0x00000000       0x80 Middlewares\Third_Party\FreeRTOS\Source\CMSIS_RTOS\cmsis_os.o
 .text.osMessageGet
                0x00000000       0xe8 Middlewares\Third_Party\FreeRTOS\Source\CMSIS_RTOS\cmsis_os.o
 .text.osMailCreate
                0x00000000       0xb2 Middlewares\Third_Party\FreeRTOS\Source\CMSIS_RTOS\cmsis_os.o
 .text.osMailAlloc
                0x00000000       0x2a Middlewares\Third_Party\FreeRTOS\Source\CMSIS_RTOS\cmsis_os.o
 .text.osMailCAlloc
                0x00000000       0x46 Middlewares\Third_Party\FreeRTOS\Source\CMSIS_RTOS\cmsis_os.o
 .text.osMailPut
                0x00000000       0x7c Middlewares\Third_Party\FreeRTOS\Source\CMSIS_RTOS\cmsis_os.o
 .text.osMailGet
                0x00000000       0xe8 Middlewares\Third_Party\FreeRTOS\Source\CMSIS_RTOS\cmsis_os.o
 .text.osMailFree
                0x00000000       0x2a Middlewares\Third_Party\FreeRTOS\Source\CMSIS_RTOS\cmsis_os.o
 .text.osThreadSuspend
                0x00000000       0x18 Middlewares\Third_Party\FreeRTOS\Source\CMSIS_RTOS\cmsis_os.o
 .text.osThreadResume
                0x00000000       0x44 Middlewares\Third_Party\FreeRTOS\Source\CMSIS_RTOS\cmsis_os.o
 .text.osThreadSuspendAll
                0x00000000        0xe Middlewares\Third_Party\FreeRTOS\Source\CMSIS_RTOS\cmsis_os.o
 .text.osThreadResumeAll
                0x00000000       0x18 Middlewares\Third_Party\FreeRTOS\Source\CMSIS_RTOS\cmsis_os.o
 .text.osDelayUntil
                0x00000000       0x18 Middlewares\Third_Party\FreeRTOS\Source\CMSIS_RTOS\cmsis_os.o
 .text.osAbortDelay
                0x00000000       0x16 Middlewares\Third_Party\FreeRTOS\Source\CMSIS_RTOS\cmsis_os.o
 .text.osThreadList
                0x00000000       0x16 Middlewares\Third_Party\FreeRTOS\Source\CMSIS_RTOS\cmsis_os.o
 .text.osMessagePeek
                0x00000000       0x96 Middlewares\Third_Party\FreeRTOS\Source\CMSIS_RTOS\cmsis_os.o
 .text.osMessageWaiting
                0x00000000       0x2c Middlewares\Third_Party\FreeRTOS\Source\CMSIS_RTOS\cmsis_os.o
 .text.osMessageAvailableSpace
                0x00000000       0x18 Middlewares\Third_Party\FreeRTOS\Source\CMSIS_RTOS\cmsis_os.o
 .text.osMessageDelete
                0x00000000       0x26 Middlewares\Third_Party\FreeRTOS\Source\CMSIS_RTOS\cmsis_os.o
 .text.osRecursiveMutexCreate
                0x00000000       0x16 Middlewares\Third_Party\FreeRTOS\Source\CMSIS_RTOS\cmsis_os.o
 .text.osRecursiveMutexRelease
                0x00000000       0x16 Middlewares\Third_Party\FreeRTOS\Source\CMSIS_RTOS\cmsis_os.o
 .text.osRecursiveMutexWait
                0x00000000       0x18 Middlewares\Third_Party\FreeRTOS\Source\CMSIS_RTOS\cmsis_os.o
 .text.osSemaphoreGetCount
                0x00000000       0x18 Middlewares\Third_Party\FreeRTOS\Source\CMSIS_RTOS\cmsis_os.o
 .text          0x00000000        0x0 Middlewares\Third_Party\FreeRTOS\Source\croutine.o
 .data          0x00000000        0x0 Middlewares\Third_Party\FreeRTOS\Source\croutine.o
 .bss           0x00000000        0x0 Middlewares\Third_Party\FreeRTOS\Source\croutine.o
 .debug_info    0x00000000       0x9a Middlewares\Third_Party\FreeRTOS\Source\croutine.o
 .debug_abbrev  0x00000000       0x44 Middlewares\Third_Party\FreeRTOS\Source\croutine.o
 .debug_aranges
                0x00000000       0x18 Middlewares\Third_Party\FreeRTOS\Source\croutine.o
 .debug_line    0x00000000      0x11d Middlewares\Third_Party\FreeRTOS\Source\croutine.o
 .debug_str     0x00000000      0x1ed Middlewares\Third_Party\FreeRTOS\Source\croutine.o
 .comment       0x00000000       0x7d Middlewares\Third_Party\FreeRTOS\Source\croutine.o
 .ARM.attributes
                0x00000000       0x39 Middlewares\Third_Party\FreeRTOS\Source\croutine.o
 .text          0x00000000        0x0 Middlewares\Third_Party\FreeRTOS\Source\event_groups.o
 .data          0x00000000        0x0 Middlewares\Third_Party\FreeRTOS\Source\event_groups.o
 .bss           0x00000000        0x0 Middlewares\Third_Party\FreeRTOS\Source\event_groups.o
 .text.xEventGroupSync
                0x00000000      0x154 Middlewares\Third_Party\FreeRTOS\Source\event_groups.o
 .text.xEventGroupGetBitsFromISR
                0x00000000       0x46 Middlewares\Third_Party\FreeRTOS\Source\event_groups.o
 .text.vEventGroupSetBitsCallback
                0x00000000       0x1a Middlewares\Third_Party\FreeRTOS\Source\event_groups.o
 .text.vEventGroupClearBitsCallback
                0x00000000       0x1a Middlewares\Third_Party\FreeRTOS\Source\event_groups.o
 .text          0x00000000        0x0 Middlewares\Third_Party\FreeRTOS\Source\list.o
 .data          0x00000000        0x0 Middlewares\Third_Party\FreeRTOS\Source\list.o
 .bss           0x00000000        0x0 Middlewares\Third_Party\FreeRTOS\Source\list.o
 .text          0x00000000        0x0 Middlewares\Third_Party\FreeRTOS\Source\portable\GCC\ARM_CM4F\port.o
 .data          0x00000000        0x0 Middlewares\Third_Party\FreeRTOS\Source\portable\GCC\ARM_CM4F\port.o
 .bss           0x00000000        0x0 Middlewares\Third_Party\FreeRTOS\Source\portable\GCC\ARM_CM4F\port.o
 .rodata.pcInterruptPriorityRegisters
                0x00000000        0x4 Middlewares\Third_Party\FreeRTOS\Source\portable\GCC\ARM_CM4F\port.o
 .text.vPortEndScheduler
                0x00000000       0x34 Middlewares\Third_Party\FreeRTOS\Source\portable\GCC\ARM_CM4F\port.o
 .text          0x00000000        0x0 Middlewares\Third_Party\FreeRTOS\Source\portable\MemMang\heap_4.o
 .data          0x00000000        0x0 Middlewares\Third_Party\FreeRTOS\Source\portable\MemMang\heap_4.o
 .bss           0x00000000        0x0 Middlewares\Third_Party\FreeRTOS\Source\portable\MemMang\heap_4.o
 .rodata.xHeapStructSize
                0x00000000        0x4 Middlewares\Third_Party\FreeRTOS\Source\portable\MemMang\heap_4.o
 .text.xPortGetFreeHeapSize
                0x00000000       0x18 Middlewares\Third_Party\FreeRTOS\Source\portable\MemMang\heap_4.o
 .text.xPortGetMinimumEverFreeHeapSize
                0x00000000       0x18 Middlewares\Third_Party\FreeRTOS\Source\portable\MemMang\heap_4.o
 .text.vPortInitialiseBlocks
                0x00000000        0xe Middlewares\Third_Party\FreeRTOS\Source\portable\MemMang\heap_4.o
 .text          0x00000000        0x0 Middlewares\Third_Party\FreeRTOS\Source\queue.o
 .data          0x00000000        0x0 Middlewares\Third_Party\FreeRTOS\Source\queue.o
 .bss           0x00000000        0x0 Middlewares\Third_Party\FreeRTOS\Source\queue.o
 .text.prvInitialiseMutex
                0x00000000       0x34 Middlewares\Third_Party\FreeRTOS\Source\queue.o
 .text.xQueueCreateMutex
                0x00000000       0x30 Middlewares\Third_Party\FreeRTOS\Source\queue.o
 .text.xQueueGiveFromISR
                0x00000000      0x112 Middlewares\Third_Party\FreeRTOS\Source\queue.o
 .text.xQueueReceiveFromISR
                0x00000000       0xfa Middlewares\Third_Party\FreeRTOS\Source\queue.o
 .text.xQueuePeekFromISR
                0x00000000       0xca Middlewares\Third_Party\FreeRTOS\Source\queue.o
 .text.uxQueueSpacesAvailable
                0x00000000       0x44 Middlewares\Third_Party\FreeRTOS\Source\queue.o
 .text.uxQueueMessagesWaitingFromISR
                0x00000000       0x36 Middlewares\Third_Party\FreeRTOS\Source\queue.o
 .text.xQueueIsQueueEmptyFromISR
                0x00000000       0x42 Middlewares\Third_Party\FreeRTOS\Source\queue.o
 .text.xQueueIsQueueFullFromISR
                0x00000000       0x46 Middlewares\Third_Party\FreeRTOS\Source\queue.o
 .text.pcQueueGetName
                0x00000000       0x4c Middlewares\Third_Party\FreeRTOS\Source\queue.o
 .text          0x00000000        0x0 Middlewares\Third_Party\FreeRTOS\Source\tasks.o
 .data          0x00000000        0x0 Middlewares\Third_Party\FreeRTOS\Source\tasks.o
 .bss           0x00000000        0x0 Middlewares\Third_Party\FreeRTOS\Source\tasks.o
 .text.vTaskDelete
                0x00000000      0x11c Middlewares\Third_Party\FreeRTOS\Source\tasks.o
 .text.uxTaskPriorityGet
                0x00000000       0x34 Middlewares\Third_Party\FreeRTOS\Source\tasks.o
 .text.uxTaskPriorityGetFromISR
                0x00000000       0x58 Middlewares\Third_Party\FreeRTOS\Source\tasks.o
 .text.vTaskPrioritySet
                0x00000000      0x15c Middlewares\Third_Party\FreeRTOS\Source\tasks.o
 .text.vTaskSuspend
                0x00000000      0x110 Middlewares\Third_Party\FreeRTOS\Source\tasks.o
 .text.prvTaskIsTaskSuspended
                0x00000000       0x74 Middlewares\Third_Party\FreeRTOS\Source\tasks.o
 .text.vTaskResume
                0x00000000       0xb8 Middlewares\Third_Party\FreeRTOS\Source\tasks.o
 .text.xTaskResumeFromISR
                0x00000000       0xe0 Middlewares\Third_Party\FreeRTOS\Source\tasks.o
 .text.vTaskEndScheduler
                0x00000000       0x30 Middlewares\Third_Party\FreeRTOS\Source\tasks.o
 .text.xTaskGetTickCountFromISR
                0x00000000       0x24 Middlewares\Third_Party\FreeRTOS\Source\tasks.o
 .text.uxTaskGetNumberOfTasks
                0x00000000       0x18 Middlewares\Third_Party\FreeRTOS\Source\tasks.o
 .text.pcTaskGetName
                0x00000000       0x48 Middlewares\Third_Party\FreeRTOS\Source\tasks.o
 .text.xTaskNotifyWait
                0x00000000       0xb4 Middlewares\Third_Party\FreeRTOS\Source\tasks.o
 .text.xTaskGenericNotify
                0x00000000      0x140 Middlewares\Third_Party\FreeRTOS\Source\tasks.o
 .text.xTaskGenericNotifyFromISR
                0x00000000      0x18c Middlewares\Third_Party\FreeRTOS\Source\tasks.o
 .text.xTaskNotifyStateClear
                0x00000000       0x4c Middlewares\Third_Party\FreeRTOS\Source\tasks.o
 .text          0x00000000        0x0 Middlewares\Third_Party\FreeRTOS\Source\timers.o
 .data          0x00000000        0x0 Middlewares\Third_Party\FreeRTOS\Source\timers.o
 .bss           0x00000000        0x0 Middlewares\Third_Party\FreeRTOS\Source\timers.o
 .debug_info    0x00000000      0x8b0 Middlewares\Third_Party\FreeRTOS\Source\timers.o
 .debug_abbrev  0x00000000      0x155 Middlewares\Third_Party\FreeRTOS\Source\timers.o
 .debug_aranges
                0x00000000       0x18 Middlewares\Third_Party\FreeRTOS\Source\timers.o
 .debug_line    0x00000000      0x21c Middlewares\Third_Party\FreeRTOS\Source\timers.o
 .debug_str     0x00000000      0x611 Middlewares\Third_Party\FreeRTOS\Source\timers.o
 .comment       0x00000000       0x7d Middlewares\Third_Party\FreeRTOS\Source\timers.o
 .ARM.attributes
                0x00000000       0x39 Middlewares\Third_Party\FreeRTOS\Source\timers.o
 .text          0x00000000        0x0 Middlewares\Third_Party\FreeRTOS-Plus-TCP\FreeRTOS_ARP.o
 .data          0x00000000        0x0 Middlewares\Third_Party\FreeRTOS-Plus-TCP\FreeRTOS_ARP.o
 .bss           0x00000000        0x0 Middlewares\Third_Party\FreeRTOS-Plus-TCP\FreeRTOS_ARP.o
 .text.vARPSendGratuitous
                0x00000000       0x18 Middlewares\Third_Party\FreeRTOS-Plus-TCP\FreeRTOS_ARP.o
 .text.FreeRTOS_ClearARP
                0x00000000       0x18 Middlewares\Third_Party\FreeRTOS-Plus-TCP\FreeRTOS_ARP.o
 .text          0x00000000        0x0 Middlewares\Third_Party\FreeRTOS-Plus-TCP\FreeRTOS_DHCP.o
 .data          0x00000000        0x0 Middlewares\Third_Party\FreeRTOS-Plus-TCP\FreeRTOS_DHCP.o
 .bss           0x00000000        0x0 Middlewares\Third_Party\FreeRTOS-Plus-TCP\FreeRTOS_DHCP.o
 .debug_info    0x00000000      0xb18 Middlewares\Third_Party\FreeRTOS-Plus-TCP\FreeRTOS_DHCP.o
 .debug_abbrev  0x00000000      0x171 Middlewares\Third_Party\FreeRTOS-Plus-TCP\FreeRTOS_DHCP.o
 .debug_aranges
                0x00000000       0x18 Middlewares\Third_Party\FreeRTOS-Plus-TCP\FreeRTOS_DHCP.o
 .debug_line    0x00000000      0x342 Middlewares\Third_Party\FreeRTOS-Plus-TCP\FreeRTOS_DHCP.o
 .debug_str     0x00000000      0x87e Middlewares\Third_Party\FreeRTOS-Plus-TCP\FreeRTOS_DHCP.o
 .comment       0x00000000       0x7d Middlewares\Third_Party\FreeRTOS-Plus-TCP\FreeRTOS_DHCP.o
 .ARM.attributes
                0x00000000       0x39 Middlewares\Third_Party\FreeRTOS-Plus-TCP\FreeRTOS_DHCP.o
 .text          0x00000000        0x0 Middlewares\Third_Party\FreeRTOS-Plus-TCP\FreeRTOS_DNS.o
 .data          0x00000000        0x0 Middlewares\Third_Party\FreeRTOS-Plus-TCP\FreeRTOS_DNS.o
 .bss           0x00000000        0x0 Middlewares\Third_Party\FreeRTOS-Plus-TCP\FreeRTOS_DNS.o
 .text.FreeRTOS_dnslookup
                0x00000000       0x24 Middlewares\Third_Party\FreeRTOS-Plus-TCP\FreeRTOS_DNS.o
 .text.FreeRTOS_gethostbyname
                0x00000000       0x5c Middlewares\Third_Party\FreeRTOS-Plus-TCP\FreeRTOS_DNS.o
 .text.prvGetHostByName
                0x00000000      0x164 Middlewares\Third_Party\FreeRTOS-Plus-TCP\FreeRTOS_DNS.o
 .text.prvCreateDNSMessage
                0x00000000       0xd0 Middlewares\Third_Party\FreeRTOS-Plus-TCP\FreeRTOS_DNS.o
 .text.prvCreateDNSSocket
                0x00000000       0x6e Middlewares\Third_Party\FreeRTOS-Plus-TCP\FreeRTOS_DNS.o
 .rodata.xDefaultPartDNSHeader.7623
                0x00000000        0xc Middlewares\Third_Party\FreeRTOS-Plus-TCP\FreeRTOS_DNS.o
 .text          0x00000000        0x0 Middlewares\Third_Party\FreeRTOS-Plus-TCP\FreeRTOS_IP.o
 .data          0x00000000        0x0 Middlewares\Third_Party\FreeRTOS-Plus-TCP\FreeRTOS_IP.o
 .bss           0x00000000        0x0 Middlewares\Third_Party\FreeRTOS-Plus-TCP\FreeRTOS_IP.o
 .text.FreeRTOS_GetUDPPayloadBuffer
                0x00000000       0x4a Middlewares\Third_Party\FreeRTOS-Plus-TCP\FreeRTOS_IP.o
 .text.FreeRTOS_ReleaseUDPPayloadBuffer
                0x00000000       0x1e Middlewares\Third_Party\FreeRTOS-Plus-TCP\FreeRTOS_IP.o
 .text.FreeRTOS_GetAddressConfiguration
                0x00000000       0x5c Middlewares\Third_Party\FreeRTOS-Plus-TCP\FreeRTOS_IP.o
 .text.FreeRTOS_SetAddressConfiguration
                0x00000000       0x5c Middlewares\Third_Party\FreeRTOS-Plus-TCP\FreeRTOS_IP.o
 .text.FreeRTOS_SetIPAddress
                0x00000000       0x20 Middlewares\Third_Party\FreeRTOS-Plus-TCP\FreeRTOS_IP.o
 .text.FreeRTOS_GetGatewayAddress
                0x00000000       0x18 Middlewares\Third_Party\FreeRTOS-Plus-TCP\FreeRTOS_IP.o
 .text.FreeRTOS_GetDNSServerAddress
                0x00000000       0x18 Middlewares\Third_Party\FreeRTOS-Plus-TCP\FreeRTOS_IP.o
 .text.FreeRTOS_GetNetmask
                0x00000000       0x18 Middlewares\Third_Party\FreeRTOS-Plus-TCP\FreeRTOS_IP.o
 .text.FreeRTOS_UpdateMACAddress
                0x00000000       0x20 Middlewares\Third_Party\FreeRTOS-Plus-TCP\FreeRTOS_IP.o
 .text.FreeRTOS_GetMACAddress
                0x00000000       0x14 Middlewares\Third_Party\FreeRTOS-Plus-TCP\FreeRTOS_IP.o
 .text.FreeRTOS_SetNetmask
                0x00000000       0x20 Middlewares\Third_Party\FreeRTOS-Plus-TCP\FreeRTOS_IP.o
 .text.FreeRTOS_SetGatewayAddress
                0x00000000       0x20 Middlewares\Third_Party\FreeRTOS-Plus-TCP\FreeRTOS_IP.o
 .text.FreeRTOS_IsNetworkUp
                0x00000000       0x18 Middlewares\Third_Party\FreeRTOS-Plus-TCP\FreeRTOS_IP.o
 .text          0x00000000        0x0 Middlewares\Third_Party\FreeRTOS-Plus-TCP\FreeRTOS_Sockets.o
 .data          0x00000000        0x0 Middlewares\Third_Party\FreeRTOS-Plus-TCP\FreeRTOS_Sockets.o
 .bss           0x00000000        0x0 Middlewares\Third_Party\FreeRTOS-Plus-TCP\FreeRTOS_Sockets.o
 .text.FreeRTOS_min_BaseType
                0x00000000       0x20 Middlewares\Third_Party\FreeRTOS-Plus-TCP\FreeRTOS_Sockets.o
 .text.FreeRTOS_CreateSocketSet
                0x00000000       0x44 Middlewares\Third_Party\FreeRTOS-Plus-TCP\FreeRTOS_Sockets.o
 .text.FreeRTOS_DeleteSocketSet
                0x00000000       0x24 Middlewares\Third_Party\FreeRTOS-Plus-TCP\FreeRTOS_Sockets.o
 .text.FreeRTOS_FD_SET
                0x00000000       0x7e Middlewares\Third_Party\FreeRTOS-Plus-TCP\FreeRTOS_Sockets.o
 .text.FreeRTOS_FD_CLR
                0x00000000       0x7c Middlewares\Third_Party\FreeRTOS-Plus-TCP\FreeRTOS_Sockets.o
 .text.FreeRTOS_FD_ISSET
                0x00000000       0x6a Middlewares\Third_Party\FreeRTOS-Plus-TCP\FreeRTOS_Sockets.o
 .text.FreeRTOS_select
                0x00000000       0x96 Middlewares\Third_Party\FreeRTOS-Plus-TCP\FreeRTOS_Sockets.o
 .text.prvFindSelectedSocket
                0x00000000       0x5a Middlewares\Third_Party\FreeRTOS-Plus-TCP\FreeRTOS_Sockets.o
 .text.FreeRTOS_recvfrom
                0x00000000      0x150 Middlewares\Third_Party\FreeRTOS-Plus-TCP\FreeRTOS_Sockets.o
 .text.FreeRTOS_sendto
                0x00000000      0x13a Middlewares\Third_Party\FreeRTOS-Plus-TCP\FreeRTOS_Sockets.o
 .text.FreeRTOS_inet_addr
                0x00000000       0xea Middlewares\Third_Party\FreeRTOS-Plus-TCP\FreeRTOS_Sockets.o
 .text.FreeRTOS_GetLocalAddress
                0x00000000       0x44 Middlewares\Third_Party\FreeRTOS-Plus-TCP\FreeRTOS_Sockets.o
 .text.bMayConnect
                0x00000000       0x34 Middlewares\Third_Party\FreeRTOS-Plus-TCP\FreeRTOS_Sockets.o
 .text.prvTCPConnectStart
                0x00000000       0xea Middlewares\Third_Party\FreeRTOS-Plus-TCP\FreeRTOS_Sockets.o
 .text.FreeRTOS_connect
                0x00000000       0xa4 Middlewares\Third_Party\FreeRTOS-Plus-TCP\FreeRTOS_Sockets.o
 .text.FreeRTOS_get_tx_head
                0x00000000       0x62 Middlewares\Third_Party\FreeRTOS-Plus-TCP\FreeRTOS_Sockets.o
 .text.FreeRTOS_shutdown
                0x00000000       0x62 Middlewares\Third_Party\FreeRTOS-Plus-TCP\FreeRTOS_Sockets.o
 .text.FreeRTOS_get_rx_buf
                0x00000000       0x1c Middlewares\Third_Party\FreeRTOS-Plus-TCP\FreeRTOS_Sockets.o
 .text.FreeRTOS_GetRemoteAddress
                0x00000000       0x78 Middlewares\Third_Party\FreeRTOS-Plus-TCP\FreeRTOS_Sockets.o
 .text.FreeRTOS_maywrite
                0x00000000       0x72 Middlewares\Third_Party\FreeRTOS-Plus-TCP\FreeRTOS_Sockets.o
 .text.FreeRTOS_issocketconnected
                0x00000000       0x48 Middlewares\Third_Party\FreeRTOS-Plus-TCP\FreeRTOS_Sockets.o
 .text.FreeRTOS_mss
                0x00000000       0x34 Middlewares\Third_Party\FreeRTOS-Plus-TCP\FreeRTOS_Sockets.o
 .text.FreeRTOS_connstatus
                0x00000000       0x34 Middlewares\Third_Party\FreeRTOS-Plus-TCP\FreeRTOS_Sockets.o
 .text.FreeRTOS_netstat
                0x00000000       0x22 Middlewares\Third_Party\FreeRTOS-Plus-TCP\FreeRTOS_Sockets.o
 .text          0x00000000        0x0 Middlewares\Third_Party\FreeRTOS-Plus-TCP\FreeRTOS_Stream_Buffer.o
 .data          0x00000000        0x0 Middlewares\Third_Party\FreeRTOS-Plus-TCP\FreeRTOS_Stream_Buffer.o
 .bss           0x00000000        0x0 Middlewares\Third_Party\FreeRTOS-Plus-TCP\FreeRTOS_Stream_Buffer.o
 .text          0x00000000        0x0 Middlewares\Third_Party\FreeRTOS-Plus-TCP\FreeRTOS_TCP_IP.o
 .data          0x00000000        0x0 Middlewares\Third_Party\FreeRTOS-Plus-TCP\FreeRTOS_TCP_IP.o
 .bss           0x00000000        0x0 Middlewares\Third_Party\FreeRTOS-Plus-TCP\FreeRTOS_TCP_IP.o
 .text          0x00000000        0x0 Middlewares\Third_Party\FreeRTOS-Plus-TCP\FreeRTOS_TCP_WIN.o
 .data          0x00000000        0x0 Middlewares\Third_Party\FreeRTOS-Plus-TCP\FreeRTOS_TCP_WIN.o
 .bss           0x00000000        0x0 Middlewares\Third_Party\FreeRTOS-Plus-TCP\FreeRTOS_TCP_WIN.o
 .text          0x00000000        0x0 Middlewares\Third_Party\FreeRTOS-Plus-TCP\FreeRTOS_UDP_IP.o
 .data          0x00000000        0x0 Middlewares\Third_Party\FreeRTOS-Plus-TCP\FreeRTOS_UDP_IP.o
 .bss           0x00000000        0x0 Middlewares\Third_Party\FreeRTOS-Plus-TCP\FreeRTOS_UDP_IP.o
 .text          0x00000000        0x0 Middlewares\Third_Party\FreeRTOS-Plus-TCP\portable\BufferManagement\BufferAllocation_2.o
 .data          0x00000000        0x0 Middlewares\Third_Party\FreeRTOS-Plus-TCP\portable\BufferManagement\BufferAllocation_2.o
 .bss           0x00000000        0x0 Middlewares\Third_Party\FreeRTOS-Plus-TCP\portable\BufferManagement\BufferAllocation_2.o
 .text.pucGetNetworkBuffer
                0x00000000       0x6e Middlewares\Third_Party\FreeRTOS-Plus-TCP\portable\BufferManagement\BufferAllocation_2.o
 .text.uxGetNumberOfFreeNetworkBuffers
                0x00000000       0x18 Middlewares\Third_Party\FreeRTOS-Plus-TCP\portable\BufferManagement\BufferAllocation_2.o
 .text.uxGetMinimumFreeNetworkBuffers
                0x00000000       0x18 Middlewares\Third_Party\FreeRTOS-Plus-TCP\portable\BufferManagement\BufferAllocation_2.o
 .text.pxResizeNetworkBufferWithDescriptor
                0x00000000       0x6e Middlewares\Third_Party\FreeRTOS-Plus-TCP\portable\BufferManagement\BufferAllocation_2.o
 .text          0x00000000        0x0 Src\freertos.o
 .data          0x00000000        0x0 Src\freertos.o
 .bss           0x00000000        0x0 Src\freertos.o
 .debug_info    0x00000000       0x9a Src\freertos.o
 .debug_abbrev  0x00000000       0x44 Src\freertos.o
 .debug_aranges
                0x00000000       0x18 Src\freertos.o
 .debug_line    0x00000000      0x11d Src\freertos.o
 .debug_str     0x00000000      0x1c9 Src\freertos.o
 .comment       0x00000000       0x7d Src\freertos.o
 .ARM.attributes
                0x00000000       0x39 Src\freertos.o
 .text          0x00000000        0x0 Src\main.o
 .data          0x00000000        0x0 Src\main.o
 .bss           0x00000000        0x0 Src\main.o
 .text.prvServerConnectionInstance
                0x00000000       0x68 Src\main.o
 .text.vApplicationMallocFailedHook
                0x00000000       0x24 Src\main.o
 .bss.cRxedData.10538
                0x00000000      0x1f4 Src\main.o
 .text          0x00000000        0x0 Src\stm32f4xx_hal_msp.o
 .data          0x00000000        0x0 Src\stm32f4xx_hal_msp.o
 .bss           0x00000000        0x0 Src\stm32f4xx_hal_msp.o
 .text          0x00000000        0x0 Src\stm32f4xx_hal_timebase_TIM.o
 .data          0x00000000        0x0 Src\stm32f4xx_hal_timebase_TIM.o
 .bss           0x00000000        0x0 Src\stm32f4xx_hal_timebase_TIM.o
 .bss.uwIncrementState
                0x00000000        0x4 Src\stm32f4xx_hal_timebase_TIM.o
 .text.HAL_SuspendTick
                0x00000000       0x24 Src\stm32f4xx_hal_timebase_TIM.o
 .text.HAL_ResumeTick
                0x00000000       0x24 Src\stm32f4xx_hal_timebase_TIM.o
 .text          0x00000000        0x0 Src\stm32f4xx_it.o
 .data          0x00000000        0x0 Src\stm32f4xx_it.o
 .bss           0x00000000        0x0 Src\stm32f4xx_it.o
 .text          0x00000000        0x0 Src\system_stm32f4xx.o
 .data          0x00000000        0x0 Src\system_stm32f4xx.o
 .bss           0x00000000        0x0 Src\system_stm32f4xx.o
 .text.SystemCoreClockUpdate
                0x00000000       0xf4 Src\system_stm32f4xx.o
 .text          0x00000000       0x14 startup\startup_stm32f411xe.o
 .data          0x00000000        0x0 startup\startup_stm32f411xe.o
 .bss           0x00000000        0x0 startup\startup_stm32f411xe.o
 .text          0x00000000        0x0 c:/program files (x86)/atollic/truestudio for stm32 9.0.0/armtools/bin/../lib/gcc/arm-atollic-eabi/6.3.1/../../../../arm-atollic-eabi/lib/armv7e-m/fpu\libc_nano.a(lib_a-init.o)
 .data          0x00000000        0x0 c:/program files (x86)/atollic/truestudio for stm32 9.0.0/armtools/bin/../lib/gcc/arm-atollic-eabi/6.3.1/../../../../arm-atollic-eabi/lib/armv7e-m/fpu\libc_nano.a(lib_a-init.o)
 .bss           0x00000000        0x0 c:/program files (x86)/atollic/truestudio for stm32 9.0.0/armtools/bin/../lib/gcc/arm-atollic-eabi/6.3.1/../../../../arm-atollic-eabi/lib/armv7e-m/fpu\libc_nano.a(lib_a-init.o)
 .text          0x00000000        0x0 c:/program files (x86)/atollic/truestudio for stm32 9.0.0/armtools/bin/../lib/gcc/arm-atollic-eabi/6.3.1/../../../../arm-atollic-eabi/lib/armv7e-m/fpu\libc_nano.a(lib_a-malloc.o)
 .data          0x00000000        0x0 c:/program files (x86)/atollic/truestudio for stm32 9.0.0/armtools/bin/../lib/gcc/arm-atollic-eabi/6.3.1/../../../../arm-atollic-eabi/lib/armv7e-m/fpu\libc_nano.a(lib_a-malloc.o)
 .bss           0x00000000        0x0 c:/program files (x86)/atollic/truestudio for stm32 9.0.0/armtools/bin/../lib/gcc/arm-atollic-eabi/6.3.1/../../../../arm-atollic-eabi/lib/armv7e-m/fpu\libc_nano.a(lib_a-malloc.o)
 .text          0x00000000        0x0 c:/program files (x86)/atollic/truestudio for stm32 9.0.0/armtools/bin/../lib/gcc/arm-atollic-eabi/6.3.1/../../../../arm-atollic-eabi/lib/armv7e-m/fpu\libc_nano.a(lib_a-memcmp.o)
 .data          0x00000000        0x0 c:/program files (x86)/atollic/truestudio for stm32 9.0.0/armtools/bin/../lib/gcc/arm-atollic-eabi/6.3.1/../../../../arm-atollic-eabi/lib/armv7e-m/fpu\libc_nano.a(lib_a-memcmp.o)
 .bss           0x00000000        0x0 c:/program files (x86)/atollic/truestudio for stm32 9.0.0/armtools/bin/../lib/gcc/arm-atollic-eabi/6.3.1/../../../../arm-atollic-eabi/lib/armv7e-m/fpu\libc_nano.a(lib_a-memcmp.o)
 .text          0x00000000        0x0 c:/program files (x86)/atollic/truestudio for stm32 9.0.0/armtools/bin/../lib/gcc/arm-atollic-eabi/6.3.1/../../../../arm-atollic-eabi/lib/armv7e-m/fpu\libc_nano.a(lib_a-memcpy-stub.o)
 .data          0x00000000        0x0 c:/program files (x86)/atollic/truestudio for stm32 9.0.0/armtools/bin/../lib/gcc/arm-atollic-eabi/6.3.1/../../../../arm-atollic-eabi/lib/armv7e-m/fpu\libc_nano.a(lib_a-memcpy-stub.o)
 .bss           0x00000000        0x0 c:/program files (x86)/atollic/truestudio for stm32 9.0.0/armtools/bin/../lib/gcc/arm-atollic-eabi/6.3.1/../../../../arm-atollic-eabi/lib/armv7e-m/fpu\libc_nano.a(lib_a-memcpy-stub.o)
 .text          0x00000000        0x0 c:/program files (x86)/atollic/truestudio for stm32 9.0.0/armtools/bin/../lib/gcc/arm-atollic-eabi/6.3.1/../../../../arm-atollic-eabi/lib/armv7e-m/fpu\libc_nano.a(lib_a-memmove.o)
 .data          0x00000000        0x0 c:/program files (x86)/atollic/truestudio for stm32 9.0.0/armtools/bin/../lib/gcc/arm-atollic-eabi/6.3.1/../../../../arm-atollic-eabi/lib/armv7e-m/fpu\libc_nano.a(lib_a-memmove.o)
 .bss           0x00000000        0x0 c:/program files (x86)/atollic/truestudio for stm32 9.0.0/armtools/bin/../lib/gcc/arm-atollic-eabi/6.3.1/../../../../arm-atollic-eabi/lib/armv7e-m/fpu\libc_nano.a(lib_a-memmove.o)
 .text          0x00000000        0x0 c:/program files (x86)/atollic/truestudio for stm32 9.0.0/armtools/bin/../lib/gcc/arm-atollic-eabi/6.3.1/../../../../arm-atollic-eabi/lib/armv7e-m/fpu\libc_nano.a(lib_a-memset.o)
 .data          0x00000000        0x0 c:/program files (x86)/atollic/truestudio for stm32 9.0.0/armtools/bin/../lib/gcc/arm-atollic-eabi/6.3.1/../../../../arm-atollic-eabi/lib/armv7e-m/fpu\libc_nano.a(lib_a-memset.o)
 .bss           0x00000000        0x0 c:/program files (x86)/atollic/truestudio for stm32 9.0.0/armtools/bin/../lib/gcc/arm-atollic-eabi/6.3.1/../../../../arm-atollic-eabi/lib/armv7e-m/fpu\libc_nano.a(lib_a-memset.o)
 .text          0x00000000        0x0 c:/program files (x86)/atollic/truestudio for stm32 9.0.0/armtools/bin/../lib/gcc/arm-atollic-eabi/6.3.1/../../../../arm-atollic-eabi/lib/armv7e-m/fpu\libc_nano.a(lib_a-nano-freer.o)
 .data          0x00000000        0x0 c:/program files (x86)/atollic/truestudio for stm32 9.0.0/armtools/bin/../lib/gcc/arm-atollic-eabi/6.3.1/../../../../arm-atollic-eabi/lib/armv7e-m/fpu\libc_nano.a(lib_a-nano-freer.o)
 .bss           0x00000000        0x0 c:/program files (x86)/atollic/truestudio for stm32 9.0.0/armtools/bin/../lib/gcc/arm-atollic-eabi/6.3.1/../../../../arm-atollic-eabi/lib/armv7e-m/fpu\libc_nano.a(lib_a-nano-freer.o)
 .text          0x00000000        0x0 c:/program files (x86)/atollic/truestudio for stm32 9.0.0/armtools/bin/../lib/gcc/arm-atollic-eabi/6.3.1/../../../../arm-atollic-eabi/lib/armv7e-m/fpu\libc_nano.a(lib_a-nano-mallocr.o)
 .data          0x00000000        0x0 c:/program files (x86)/atollic/truestudio for stm32 9.0.0/armtools/bin/../lib/gcc/arm-atollic-eabi/6.3.1/../../../../arm-atollic-eabi/lib/armv7e-m/fpu\libc_nano.a(lib_a-nano-mallocr.o)
 .bss           0x00000000        0x0 c:/program files (x86)/atollic/truestudio for stm32 9.0.0/armtools/bin/../lib/gcc/arm-atollic-eabi/6.3.1/../../../../arm-atollic-eabi/lib/armv7e-m/fpu\libc_nano.a(lib_a-nano-mallocr.o)
 .text          0x00000000        0x0 c:/program files (x86)/atollic/truestudio for stm32 9.0.0/armtools/bin/../lib/gcc/arm-atollic-eabi/6.3.1/../../../../arm-atollic-eabi/lib/armv7e-m/fpu\libc_nano.a(lib_a-rand.o)
 .data          0x00000000        0x0 c:/program files (x86)/atollic/truestudio for stm32 9.0.0/armtools/bin/../lib/gcc/arm-atollic-eabi/6.3.1/../../../../arm-atollic-eabi/lib/armv7e-m/fpu\libc_nano.a(lib_a-rand.o)
 .bss           0x00000000        0x0 c:/program files (x86)/atollic/truestudio for stm32 9.0.0/armtools/bin/../lib/gcc/arm-atollic-eabi/6.3.1/../../../../arm-atollic-eabi/lib/armv7e-m/fpu\libc_nano.a(lib_a-rand.o)
 .text.srand    0x00000000       0x50 c:/program files (x86)/atollic/truestudio for stm32 9.0.0/armtools/bin/../lib/gcc/arm-atollic-eabi/6.3.1/../../../../arm-atollic-eabi/lib/armv7e-m/fpu\libc_nano.a(lib_a-rand.o)
 .text          0x00000000        0x0 c:/program files (x86)/atollic/truestudio for stm32 9.0.0/armtools/bin/../lib/gcc/arm-atollic-eabi/6.3.1/../../../../arm-atollic-eabi/lib/armv7e-m/fpu\libc_nano.a(lib_a-sbrkr.o)
 .data          0x00000000        0x0 c:/program files (x86)/atollic/truestudio for stm32 9.0.0/armtools/bin/../lib/gcc/arm-atollic-eabi/6.3.1/../../../../arm-atollic-eabi/lib/armv7e-m/fpu\libc_nano.a(lib_a-sbrkr.o)
 .bss           0x00000000        0x0 c:/program files (x86)/atollic/truestudio for stm32 9.0.0/armtools/bin/../lib/gcc/arm-atollic-eabi/6.3.1/../../../../arm-atollic-eabi/lib/armv7e-m/fpu\libc_nano.a(lib_a-sbrkr.o)
 .text          0x00000000        0x0 c:/program files (x86)/atollic/truestudio for stm32 9.0.0/armtools/bin/../lib/gcc/arm-atollic-eabi/6.3.1/../../../../arm-atollic-eabi/lib/armv7e-m/fpu\libc_nano.a(lib_a-strcasecmp.o)
 .data          0x00000000        0x0 c:/program files (x86)/atollic/truestudio for stm32 9.0.0/armtools/bin/../lib/gcc/arm-atollic-eabi/6.3.1/../../../../arm-atollic-eabi/lib/armv7e-m/fpu\libc_nano.a(lib_a-strcasecmp.o)
 .bss           0x00000000        0x0 c:/program files (x86)/atollic/truestudio for stm32 9.0.0/armtools/bin/../lib/gcc/arm-atollic-eabi/6.3.1/../../../../arm-atollic-eabi/lib/armv7e-m/fpu\libc_nano.a(lib_a-strcasecmp.o)
 .data          0x00000000        0x0 c:/program files (x86)/atollic/truestudio for stm32 9.0.0/armtools/bin/../lib/gcc/arm-atollic-eabi/6.3.1/../../../../arm-atollic-eabi/lib/armv7e-m/fpu\libc_nano.a(lib_a-strcmp.o)
 .bss           0x00000000        0x0 c:/program files (x86)/atollic/truestudio for stm32 9.0.0/armtools/bin/../lib/gcc/arm-atollic-eabi/6.3.1/../../../../arm-atollic-eabi/lib/armv7e-m/fpu\libc_nano.a(lib_a-strcmp.o)
 .text          0x00000000        0x0 c:/program files (x86)/atollic/truestudio for stm32 9.0.0/armtools/bin/../lib/gcc/arm-atollic-eabi/6.3.1/../../../../arm-atollic-eabi/lib/armv7e-m/fpu\libc_nano.a(lib_a-strcpy.o)
 .data          0x00000000        0x0 c:/program files (x86)/atollic/truestudio for stm32 9.0.0/armtools/bin/../lib/gcc/arm-atollic-eabi/6.3.1/../../../../arm-atollic-eabi/lib/armv7e-m/fpu\libc_nano.a(lib_a-strcpy.o)
 .bss           0x00000000        0x0 c:/program files (x86)/atollic/truestudio for stm32 9.0.0/armtools/bin/../lib/gcc/arm-atollic-eabi/6.3.1/../../../../arm-atollic-eabi/lib/armv7e-m/fpu\libc_nano.a(lib_a-strcpy.o)
 .data          0x00000000        0x0 c:/program files (x86)/atollic/truestudio for stm32 9.0.0/armtools/bin/../lib/gcc/arm-atollic-eabi/6.3.1/../../../../arm-atollic-eabi/lib/armv7e-m/fpu\libc_nano.a(lib_a-strlen.o)
 .bss           0x00000000        0x0 c:/program files (x86)/atollic/truestudio for stm32 9.0.0/armtools/bin/../lib/gcc/arm-atollic-eabi/6.3.1/../../../../arm-atollic-eabi/lib/armv7e-m/fpu\libc_nano.a(lib_a-strlen.o)
 .text          0x00000000        0x0 c:/program files (x86)/atollic/truestudio for stm32 9.0.0/armtools/bin/../lib/gcc/arm-atollic-eabi/6.3.1/../../../../arm-atollic-eabi/lib/armv7e-m/fpu\libc_nano.a(lib_a-impure.o)
 .data          0x00000000        0x0 c:/program files (x86)/atollic/truestudio for stm32 9.0.0/armtools/bin/../lib/gcc/arm-atollic-eabi/6.3.1/../../../../arm-atollic-eabi/lib/armv7e-m/fpu\libc_nano.a(lib_a-impure.o)
 .bss           0x00000000        0x0 c:/program files (x86)/atollic/truestudio for stm32 9.0.0/armtools/bin/../lib/gcc/arm-atollic-eabi/6.3.1/../../../../arm-atollic-eabi/lib/armv7e-m/fpu\libc_nano.a(lib_a-impure.o)
 .rodata._global_impure_ptr
                0x00000000        0x4 c:/program files (x86)/atollic/truestudio for stm32 9.0.0/armtools/bin/../lib/gcc/arm-atollic-eabi/6.3.1/../../../../arm-atollic-eabi/lib/armv7e-m/fpu\libc_nano.a(lib_a-impure.o)
 .text          0x00000000        0x0 c:/program files (x86)/atollic/truestudio for stm32 9.0.0/armtools/bin/../lib/gcc/arm-atollic-eabi/6.3.1/../../../../arm-atollic-eabi/lib/armv7e-m/fpu\libc_nano.a(lib_a-locale.o)
 .data          0x00000000        0x0 c:/program files (x86)/atollic/truestudio for stm32 9.0.0/armtools/bin/../lib/gcc/arm-atollic-eabi/6.3.1/../../../../arm-atollic-eabi/lib/armv7e-m/fpu\libc_nano.a(lib_a-locale.o)
 .bss           0x00000000        0x0 c:/program files (x86)/atollic/truestudio for stm32 9.0.0/armtools/bin/../lib/gcc/arm-atollic-eabi/6.3.1/../../../../arm-atollic-eabi/lib/armv7e-m/fpu\libc_nano.a(lib_a-locale.o)
 .text._setlocale_r
                0x00000000       0x38 c:/program files (x86)/atollic/truestudio for stm32 9.0.0/armtools/bin/../lib/gcc/arm-atollic-eabi/6.3.1/../../../../arm-atollic-eabi/lib/armv7e-m/fpu\libc_nano.a(lib_a-locale.o)
 .text.__locale_mb_cur_max
                0x00000000       0x1c c:/program files (x86)/atollic/truestudio for stm32 9.0.0/armtools/bin/../lib/gcc/arm-atollic-eabi/6.3.1/../../../../arm-atollic-eabi/lib/armv7e-m/fpu\libc_nano.a(lib_a-locale.o)
 .text.__locale_ctype_ptr_l
                0x00000000        0x6 c:/program files (x86)/atollic/truestudio for stm32 9.0.0/armtools/bin/../lib/gcc/arm-atollic-eabi/6.3.1/../../../../arm-atollic-eabi/lib/armv7e-m/fpu\libc_nano.a(lib_a-locale.o)
 .text.setlocale
                0x00000000       0x10 c:/program files (x86)/atollic/truestudio for stm32 9.0.0/armtools/bin/../lib/gcc/arm-atollic-eabi/6.3.1/../../../../arm-atollic-eabi/lib/armv7e-m/fpu\libc_nano.a(lib_a-locale.o)
 .bss._PathLocale
                0x00000000        0x4 c:/program files (x86)/atollic/truestudio for stm32 9.0.0/armtools/bin/../lib/gcc/arm-atollic-eabi/6.3.1/../../../../arm-atollic-eabi/lib/armv7e-m/fpu\libc_nano.a(lib_a-locale.o)
 .text          0x00000000        0x0 c:/program files (x86)/atollic/truestudio for stm32 9.0.0/armtools/bin/../lib/gcc/arm-atollic-eabi/6.3.1/../../../../arm-atollic-eabi/lib/armv7e-m/fpu\libc_nano.a(lib_a-mbtowc_r.o)
 .data          0x00000000        0x0 c:/program files (x86)/atollic/truestudio for stm32 9.0.0/armtools/bin/../lib/gcc/arm-atollic-eabi/6.3.1/../../../../arm-atollic-eabi/lib/armv7e-m/fpu\libc_nano.a(lib_a-mbtowc_r.o)
 .bss           0x00000000        0x0 c:/program files (x86)/atollic/truestudio for stm32 9.0.0/armtools/bin/../lib/gcc/arm-atollic-eabi/6.3.1/../../../../arm-atollic-eabi/lib/armv7e-m/fpu\libc_nano.a(lib_a-mbtowc_r.o)
 .text._mbtowc_r
                0x00000000       0x24 c:/program files (x86)/atollic/truestudio for stm32 9.0.0/armtools/bin/../lib/gcc/arm-atollic-eabi/6.3.1/../../../../arm-atollic-eabi/lib/armv7e-m/fpu\libc_nano.a(lib_a-mbtowc_r.o)
 .text          0x00000000        0x0 c:/program files (x86)/atollic/truestudio for stm32 9.0.0/armtools/bin/../lib/gcc/arm-atollic-eabi/6.3.1/../../../../arm-atollic-eabi/lib/armv7e-m/fpu\libc_nano.a(lib_a-mlock.o)
 .data          0x00000000        0x0 c:/program files (x86)/atollic/truestudio for stm32 9.0.0/armtools/bin/../lib/gcc/arm-atollic-eabi/6.3.1/../../../../arm-atollic-eabi/lib/armv7e-m/fpu\libc_nano.a(lib_a-mlock.o)
 .bss           0x00000000        0x0 c:/program files (x86)/atollic/truestudio for stm32 9.0.0/armtools/bin/../lib/gcc/arm-atollic-eabi/6.3.1/../../../../arm-atollic-eabi/lib/armv7e-m/fpu\libc_nano.a(lib_a-mlock.o)
 .text          0x00000000        0x0 c:/program files (x86)/atollic/truestudio for stm32 9.0.0/armtools/bin/../lib/gcc/arm-atollic-eabi/6.3.1/../../../../arm-atollic-eabi/lib/armv7e-m/fpu\libc_nano.a(lib_a-reent.o)
 .data          0x00000000        0x0 c:/program files (x86)/atollic/truestudio for stm32 9.0.0/armtools/bin/../lib/gcc/arm-atollic-eabi/6.3.1/../../../../arm-atollic-eabi/lib/armv7e-m/fpu\libc_nano.a(lib_a-reent.o)
 .bss           0x00000000        0x0 c:/program files (x86)/atollic/truestudio for stm32 9.0.0/armtools/bin/../lib/gcc/arm-atollic-eabi/6.3.1/../../../../arm-atollic-eabi/lib/armv7e-m/fpu\libc_nano.a(lib_a-reent.o)
 .text.cleanup_glue
                0x00000000       0x1a c:/program files (x86)/atollic/truestudio for stm32 9.0.0/armtools/bin/../lib/gcc/arm-atollic-eabi/6.3.1/../../../../arm-atollic-eabi/lib/armv7e-m/fpu\libc_nano.a(lib_a-reent.o)
 .text._reclaim_reent
                0x00000000       0xb8 c:/program files (x86)/atollic/truestudio for stm32 9.0.0/armtools/bin/../lib/gcc/arm-atollic-eabi/6.3.1/../../../../arm-atollic-eabi/lib/armv7e-m/fpu\libc_nano.a(lib_a-reent.o)
 .text          0x00000000        0x0 c:/program files (x86)/atollic/truestudio for stm32 9.0.0/armtools/bin/../lib/gcc/arm-atollic-eabi/6.3.1/../../../../arm-atollic-eabi/lib/armv7e-m/fpu\libc_nano.a(lib_a-wctomb_r.o)
 .data          0x00000000        0x0 c:/program files (x86)/atollic/truestudio for stm32 9.0.0/armtools/bin/../lib/gcc/arm-atollic-eabi/6.3.1/../../../../arm-atollic-eabi/lib/armv7e-m/fpu\libc_nano.a(lib_a-wctomb_r.o)
 .bss           0x00000000        0x0 c:/program files (x86)/atollic/truestudio for stm32 9.0.0/armtools/bin/../lib/gcc/arm-atollic-eabi/6.3.1/../../../../arm-atollic-eabi/lib/armv7e-m/fpu\libc_nano.a(lib_a-wctomb_r.o)
 .text._wctomb_r
                0x00000000       0x24 c:/program files (x86)/atollic/truestudio for stm32 9.0.0/armtools/bin/../lib/gcc/arm-atollic-eabi/6.3.1/../../../../arm-atollic-eabi/lib/armv7e-m/fpu\libc_nano.a(lib_a-wctomb_r.o)
 .text          0x00000000        0x0 c:/program files (x86)/atollic/truestudio for stm32 9.0.0/armtools/bin/../lib/gcc/arm-atollic-eabi/6.3.1/../../../../arm-atollic-eabi/lib/armv7e-m/fpu\libc_nano.a(lib_a-ctype_.o)
 .data          0x00000000        0x0 c:/program files (x86)/atollic/truestudio for stm32 9.0.0/armtools/bin/../lib/gcc/arm-atollic-eabi/6.3.1/../../../../arm-atollic-eabi/lib/armv7e-m/fpu\libc_nano.a(lib_a-ctype_.o)
 .bss           0x00000000        0x0 c:/program files (x86)/atollic/truestudio for stm32 9.0.0/armtools/bin/../lib/gcc/arm-atollic-eabi/6.3.1/../../../../arm-atollic-eabi/lib/armv7e-m/fpu\libc_nano.a(lib_a-ctype_.o)
 .data          0x00000000        0x0 c:/program files (x86)/atollic/truestudio for stm32 9.0.0/armtools/bin/../lib/gcc/arm-atollic-eabi/6.3.1/armv7e-m/fpu\libgcc.a(_aeabi_uldivmod.o)
 .bss           0x00000000        0x0 c:/program files (x86)/atollic/truestudio for stm32 9.0.0/armtools/bin/../lib/gcc/arm-atollic-eabi/6.3.1/armv7e-m/fpu\libgcc.a(_aeabi_uldivmod.o)
 .data          0x00000000        0x0 c:/program files (x86)/atollic/truestudio for stm32 9.0.0/armtools/bin/../lib/gcc/arm-atollic-eabi/6.3.1/armv7e-m/fpu\libgcc.a(_udivmoddi4.o)
 .bss           0x00000000        0x0 c:/program files (x86)/atollic/truestudio for stm32 9.0.0/armtools/bin/../lib/gcc/arm-atollic-eabi/6.3.1/armv7e-m/fpu\libgcc.a(_udivmoddi4.o)
 .ARM.extab     0x00000000        0x0 c:/program files (x86)/atollic/truestudio for stm32 9.0.0/armtools/bin/../lib/gcc/arm-atollic-eabi/6.3.1/armv7e-m/fpu\libgcc.a(_udivmoddi4.o)
 .data          0x00000000        0x0 c:/program files (x86)/atollic/truestudio for stm32 9.0.0/armtools/bin/../lib/gcc/arm-atollic-eabi/6.3.1/armv7e-m/fpu\libgcc.a(_dvmd_tls.o)
 .bss           0x00000000        0x0 c:/program files (x86)/atollic/truestudio for stm32 9.0.0/armtools/bin/../lib/gcc/arm-atollic-eabi/6.3.1/armv7e-m/fpu\libgcc.a(_dvmd_tls.o)
 .text          0x00000000        0x0 c:/program files (x86)/atollic/truestudio for stm32 9.0.0/armtools/bin/../lib/gcc/arm-atollic-eabi/6.3.1/../../../../arm-atollic-eabi/lib/armv7e-m/fpu\libnosys.a(sbrk.o)
 .data          0x00000000        0x0 c:/program files (x86)/atollic/truestudio for stm32 9.0.0/armtools/bin/../lib/gcc/arm-atollic-eabi/6.3.1/../../../../arm-atollic-eabi/lib/armv7e-m/fpu\libnosys.a(sbrk.o)
 .bss           0x00000000        0x0 c:/program files (x86)/atollic/truestudio for stm32 9.0.0/armtools/bin/../lib/gcc/arm-atollic-eabi/6.3.1/../../../../arm-atollic-eabi/lib/armv7e-m/fpu\libnosys.a(sbrk.o)
 .text          0x00000000        0x0 c:/program files (x86)/atollic/truestudio for stm32 9.0.0/armtools/bin/../lib/gcc/arm-atollic-eabi/6.3.1/armv7e-m/fpu/crtend.o
 .data          0x00000000        0x0 c:/program files (x86)/atollic/truestudio for stm32 9.0.0/armtools/bin/../lib/gcc/arm-atollic-eabi/6.3.1/armv7e-m/fpu/crtend.o
 .bss           0x00000000        0x0 c:/program files (x86)/atollic/truestudio for stm32 9.0.0/armtools/bin/../lib/gcc/arm-atollic-eabi/6.3.1/armv7e-m/fpu/crtend.o
 .eh_frame      0x00000000        0x4 c:/program files (x86)/atollic/truestudio for stm32 9.0.0/armtools/bin/../lib/gcc/arm-atollic-eabi/6.3.1/armv7e-m/fpu/crtend.o
 .ARM.attributes
                0x00000000       0x34 c:/program files (x86)/atollic/truestudio for stm32 9.0.0/armtools/bin/../lib/gcc/arm-atollic-eabi/6.3.1/armv7e-m/fpu/crtend.o
 .text          0x00000000        0x0 c:/program files (x86)/atollic/truestudio for stm32 9.0.0/armtools/bin/../lib/gcc/arm-atollic-eabi/6.3.1/armv7e-m/fpu/crtn.o
 .data          0x00000000        0x0 c:/program files (x86)/atollic/truestudio for stm32 9.0.0/armtools/bin/../lib/gcc/arm-atollic-eabi/6.3.1/armv7e-m/fpu/crtn.o
 .bss           0x00000000        0x0 c:/program files (x86)/atollic/truestudio for stm32 9.0.0/armtools/bin/../lib/gcc/arm-atollic-eabi/6.3.1/armv7e-m/fpu/crtn.o

Memory Configuration

Name             Origin             Length             Attributes
RAM              0x20000000         0x00020000         xrw
FLASH            0x08000000         0x00080000         xr
*default*        0x00000000         0xffffffff

Linker script and memory map

LOAD c:/program files (x86)/atollic/truestudio for stm32 9.0.0/armtools/bin/../lib/gcc/arm-atollic-eabi/6.3.1/armv7e-m/fpu/crti.o
LOAD c:/program files (x86)/atollic/truestudio for stm32 9.0.0/armtools/bin/../lib/gcc/arm-atollic-eabi/6.3.1/armv7e-m/fpu/crtbegin.o
LOAD Drivers\STM32F4xx_HAL_Driver\Src\stm32f4xx_hal.o
LOAD Drivers\STM32F4xx_HAL_Driver\Src\stm32f4xx_hal_cortex.o
LOAD Drivers\STM32F4xx_HAL_Driver\Src\stm32f4xx_hal_dma.o
LOAD Drivers\STM32F4xx_HAL_Driver\Src\stm32f4xx_hal_dma_ex.o
LOAD Drivers\STM32F4xx_HAL_Driver\Src\stm32f4xx_hal_flash.o
LOAD Drivers\STM32F4xx_HAL_Driver\Src\stm32f4xx_hal_flash_ex.o
LOAD Drivers\STM32F4xx_HAL_Driver\Src\stm32f4xx_hal_flash_ramfunc.o
LOAD Drivers\STM32F4xx_HAL_Driver\Src\stm32f4xx_hal_gpio.o
LOAD Drivers\STM32F4xx_HAL_Driver\Src\stm32f4xx_hal_pcd.o
LOAD Drivers\STM32F4xx_HAL_Driver\Src\stm32f4xx_hal_pcd_ex.o
LOAD Drivers\STM32F4xx_HAL_Driver\Src\stm32f4xx_hal_pwr.o
LOAD Drivers\STM32F4xx_HAL_Driver\Src\stm32f4xx_hal_pwr_ex.o
LOAD Drivers\STM32F4xx_HAL_Driver\Src\stm32f4xx_hal_rcc.o
LOAD Drivers\STM32F4xx_HAL_Driver\Src\stm32f4xx_hal_rcc_ex.o
LOAD Drivers\STM32F4xx_HAL_Driver\Src\stm32f4xx_hal_tim.o
LOAD Drivers\STM32F4xx_HAL_Driver\Src\stm32f4xx_hal_tim_ex.o
LOAD Drivers\STM32F4xx_HAL_Driver\Src\stm32f4xx_ll_usb.o
LOAD Middlewares\ST\STM32_USB_Device_Library\App\Src\usb_device.o
LOAD Middlewares\ST\STM32_USB_Device_Library\App\Src\usbd_conf.o
LOAD Middlewares\ST\STM32_USB_Device_Library\App\Src\usbd_desc.o
LOAD Middlewares\ST\STM32_USB_Device_Library\App\Src\usbd_rndis_if.o
LOAD Middlewares\ST\STM32_USB_Device_Library\Class\Composite\Src\usbd_composite.o
LOAD Middlewares\ST\STM32_USB_Device_Library\Class\RNDIS\Src\usbd_rndis.o
LOAD Middlewares\ST\STM32_USB_Device_Library\Core\Src\usbd_core.o
LOAD Middlewares\ST\STM32_USB_Device_Library\Core\Src\usbd_ctlreq.o
LOAD Middlewares\ST\STM32_USB_Device_Library\Core\Src\usbd_ioreq.o
LOAD Middlewares\Third_Party\FreeRTOS\Source\CMSIS_RTOS\cmsis_os.o
LOAD Middlewares\Third_Party\FreeRTOS\Source\croutine.o
LOAD Middlewares\Third_Party\FreeRTOS\Source\event_groups.o
LOAD Middlewares\Third_Party\FreeRTOS\Source\list.o
LOAD Middlewares\Third_Party\FreeRTOS\Source\portable\GCC\ARM_CM4F\port.o
LOAD Middlewares\Third_Party\FreeRTOS\Source\portable\MemMang\heap_4.o
LOAD Middlewares\Third_Party\FreeRTOS\Source\queue.o
LOAD Middlewares\Third_Party\FreeRTOS\Source\tasks.o
LOAD Middlewares\Third_Party\FreeRTOS\Source\timers.o
LOAD Middlewares\Third_Party\FreeRTOS-Plus-TCP\FreeRTOS_ARP.o
LOAD Middlewares\Third_Party\FreeRTOS-Plus-TCP\FreeRTOS_DHCP.o
LOAD Middlewares\Third_Party\FreeRTOS-Plus-TCP\FreeRTOS_DNS.o
LOAD Middlewares\Third_Party\FreeRTOS-Plus-TCP\FreeRTOS_IP.o
LOAD Middlewares\Third_Party\FreeRTOS-Plus-TCP\FreeRTOS_Sockets.o
LOAD Middlewares\Third_Party\FreeRTOS-Plus-TCP\FreeRTOS_Stream_Buffer.o
LOAD Middlewares\Third_Party\FreeRTOS-Plus-TCP\FreeRTOS_TCP_IP.o
LOAD Middlewares\Third_Party\FreeRTOS-Plus-TCP\FreeRTOS_TCP_WIN.o
LOAD Middlewares\Third_Party\FreeRTOS-Plus-TCP\FreeRTOS_UDP_IP.o
LOAD Middlewares\Third_Party\FreeRTOS-Plus-TCP\portable\BufferManagement\BufferAllocation_2.o
LOAD Src\freertos.o
LOAD Src\main.o
LOAD Src\stm32f4xx_hal_msp.o
LOAD Src\stm32f4xx_hal_timebase_TIM.o
LOAD Src\stm32f4xx_it.o
LOAD Src\system_stm32f4xx.o
LOAD startup\startup_stm32f411xe.o
                0x00000080                malloc_getpagesize_P = 0x80
START GROUP
LOAD c:/program files (x86)/atollic/truestudio for stm32 9.0.0/armtools/bin/../lib/gcc/arm-atollic-eabi/6.3.1/../../../../arm-atollic-eabi/lib/armv7e-m/fpu\libc_nano.a
LOAD c:/program files (x86)/atollic/truestudio for stm32 9.0.0/armtools/bin/../lib/gcc/arm-atollic-eabi/6.3.1/../../../../arm-atollic-eabi/lib/armv7e-m/fpu\libm.a
END GROUP
START GROUP
LOAD c:/program files (x86)/atollic/truestudio for stm32 9.0.0/armtools/bin/../lib/gcc/arm-atollic-eabi/6.3.1/armv7e-m/fpu\libgcc.a
LOAD c:/program files (x86)/atollic/truestudio for stm32 9.0.0/armtools/bin/../lib/gcc/arm-atollic-eabi/6.3.1/../../../../arm-atollic-eabi/lib/armv7e-m/fpu\libc_nano.a
END GROUP
START GROUP
LOAD c:/program files (x86)/atollic/truestudio for stm32 9.0.0/armtools/bin/../lib/gcc/arm-atollic-eabi/6.3.1/armv7e-m/fpu\libgcc.a
LOAD c:/program files (x86)/atollic/truestudio for stm32 9.0.0/armtools/bin/../lib/gcc/arm-atollic-eabi/6.3.1/../../../../arm-atollic-eabi/lib/armv7e-m/fpu\libc_nano.a
LOAD c:/program files (x86)/atollic/truestudio for stm32 9.0.0/armtools/bin/../lib/gcc/arm-atollic-eabi/6.3.1/../../../../arm-atollic-eabi/lib/armv7e-m/fpu\libnosys.a
END GROUP
START GROUP
LOAD c:/program files (x86)/atollic/truestudio for stm32 9.0.0/armtools/bin/../lib/gcc/arm-atollic-eabi/6.3.1/armv7e-m/fpu\libgcc.a
LOAD c:/program files (x86)/atollic/truestudio for stm32 9.0.0/armtools/bin/../lib/gcc/arm-atollic-eabi/6.3.1/../../../../arm-atollic-eabi/lib/armv7e-m/fpu\libc_nano.a
LOAD c:/program files (x86)/atollic/truestudio for stm32 9.0.0/armtools/bin/../lib/gcc/arm-atollic-eabi/6.3.1/../../../../arm-atollic-eabi/lib/armv7e-m/fpu\libnosys.a
END GROUP
LOAD c:/program files (x86)/atollic/truestudio for stm32 9.0.0/armtools/bin/../lib/gcc/arm-atollic-eabi/6.3.1/armv7e-m/fpu/crtend.o
LOAD c:/program files (x86)/atollic/truestudio for stm32 9.0.0/armtools/bin/../lib/gcc/arm-atollic-eabi/6.3.1/armv7e-m/fpu/crtn.o
                0x20020000                _estack = 0x20020000
                0x00000200                _Min_Heap_Size = 0x200
                0x00000400                _Min_Stack_Size = 0x400

.isr_vector     0x08000000      0x198
                0x08000000                . = ALIGN (0x4)
 *(.isr_vector)
 .isr_vector    0x08000000      0x198 startup\startup_stm32f411xe.o
                0x08000000                g_pfnVectors
                0x08000198                . = ALIGN (0x4)

.text           0x080001a0    0x1211c
                0x080001a0                . = ALIGN (0x4)
 *(.text)
 .text          0x080001a0       0x40 c:/program files (x86)/atollic/truestudio for stm32 9.0.0/armtools/bin/../lib/gcc/arm-atollic-eabi/6.3.1/armv7e-m/fpu/crtbegin.o
 .text          0x080001e0       0x14 c:/program files (x86)/atollic/truestudio for stm32 9.0.0/armtools/bin/../lib/gcc/arm-atollic-eabi/6.3.1/../../../../arm-atollic-eabi/lib/armv7e-m/fpu\libc_nano.a(lib_a-strcmp.o)
                0x080001e0                strcmp
 .text          0x080001f4       0x10 c:/program files (x86)/atollic/truestudio for stm32 9.0.0/armtools/bin/../lib/gcc/arm-atollic-eabi/6.3.1/../../../../arm-atollic-eabi/lib/armv7e-m/fpu\libc_nano.a(lib_a-strlen.o)
                0x080001f4                strlen
 .text          0x08000204       0x30 c:/program files (x86)/atollic/truestudio for stm32 9.0.0/armtools/bin/../lib/gcc/arm-atollic-eabi/6.3.1/armv7e-m/fpu\libgcc.a(_aeabi_uldivmod.o)
                0x08000204                __aeabi_uldivmod
 .text          0x08000234      0x2dc c:/program files (x86)/atollic/truestudio for stm32 9.0.0/armtools/bin/../lib/gcc/arm-atollic-eabi/6.3.1/armv7e-m/fpu\libgcc.a(_udivmoddi4.o)
                0x08000234                __udivmoddi4
 .text          0x08000510        0x4 c:/program files (x86)/atollic/truestudio for stm32 9.0.0/armtools/bin/../lib/gcc/arm-atollic-eabi/6.3.1/armv7e-m/fpu\libgcc.a(_dvmd_tls.o)
                0x08000510                __aeabi_idiv0
                0x08000510                __aeabi_ldiv0
 *(.text*)
 .text.HAL_Init
                0x08000514       0x44 Drivers\STM32F4xx_HAL_Driver\Src\stm32f4xx_hal.o
                0x08000514                HAL_Init
 .text.HAL_IncTick
                0x08000558       0x28 Drivers\STM32F4xx_HAL_Driver\Src\stm32f4xx_hal.o
                0x08000558                HAL_IncTick
 .text.HAL_GetTick
                0x08000580       0x18 Drivers\STM32F4xx_HAL_Driver\Src\stm32f4xx_hal.o
                0x08000580                HAL_GetTick
 .text.HAL_Delay
                0x08000598       0x44 Drivers\STM32F4xx_HAL_Driver\Src\stm32f4xx_hal.o
                0x08000598                HAL_Delay
 .text.NVIC_SetPriorityGrouping
                0x080005dc       0x48 Drivers\STM32F4xx_HAL_Driver\Src\stm32f4xx_hal_cortex.o
 .text.NVIC_GetPriorityGrouping
                0x08000624       0x1c Drivers\STM32F4xx_HAL_Driver\Src\stm32f4xx_hal_cortex.o
 .text.NVIC_EnableIRQ
                0x08000640       0x34 Drivers\STM32F4xx_HAL_Driver\Src\stm32f4xx_hal_cortex.o
 .text.NVIC_SetPriority
                0x08000674       0x54 Drivers\STM32F4xx_HAL_Driver\Src\stm32f4xx_hal_cortex.o
 .text.NVIC_EncodePriority
                0x080006c8       0x62 Drivers\STM32F4xx_HAL_Driver\Src\stm32f4xx_hal_cortex.o
 *fill*         0x0800072a        0x2 
 .text.SysTick_Config
                0x0800072c       0x44 Drivers\STM32F4xx_HAL_Driver\Src\stm32f4xx_hal_cortex.o
 .text.HAL_NVIC_SetPriorityGrouping
                0x08000770       0x16 Drivers\STM32F4xx_HAL_Driver\Src\stm32f4xx_hal_cortex.o
                0x08000770                HAL_NVIC_SetPriorityGrouping
 .text.HAL_NVIC_SetPriority
                0x08000786       0x38 Drivers\STM32F4xx_HAL_Driver\Src\stm32f4xx_hal_cortex.o
                0x08000786                HAL_NVIC_SetPriority
 .text.HAL_NVIC_EnableIRQ
                0x080007be       0x1c Drivers\STM32F4xx_HAL_Driver\Src\stm32f4xx_hal_cortex.o
                0x080007be                HAL_NVIC_EnableIRQ
 .text.HAL_SYSTICK_Config
                0x080007da       0x18 Drivers\STM32F4xx_HAL_Driver\Src\stm32f4xx_hal_cortex.o
                0x080007da                HAL_SYSTICK_Config
 *fill*         0x080007f2        0x2 
 .text.HAL_SYSTICK_CLKSourceConfig
                0x080007f4       0x38 Drivers\STM32F4xx_HAL_Driver\Src\stm32f4xx_hal_cortex.o
                0x080007f4                HAL_SYSTICK_CLKSourceConfig
 .text.HAL_GPIO_Init
                0x0800082c      0x304 Drivers\STM32F4xx_HAL_Driver\Src\stm32f4xx_hal_gpio.o
                0x0800082c                HAL_GPIO_Init
 .text.HAL_GPIO_WritePin
                0x08000b30       0x32 Drivers\STM32F4xx_HAL_Driver\Src\stm32f4xx_hal_gpio.o
                0x08000b30                HAL_GPIO_WritePin
 .text.HAL_GPIO_TogglePin
                0x08000b62       0x24 Drivers\STM32F4xx_HAL_Driver\Src\stm32f4xx_hal_gpio.o
                0x08000b62                HAL_GPIO_TogglePin
 .text.HAL_PCD_Init
                0x08000b86      0x20e Drivers\STM32F4xx_HAL_Driver\Src\stm32f4xx_hal_pcd.o
                0x08000b86                HAL_PCD_Init
 .text.HAL_PCD_Start
                0x08000d94       0x44 Drivers\STM32F4xx_HAL_Driver\Src\stm32f4xx_hal_pcd.o
                0x08000d94                HAL_PCD_Start
 .text.HAL_PCD_IRQHandler
                0x08000dd8      0x914 Drivers\STM32F4xx_HAL_Driver\Src\stm32f4xx_hal_pcd.o
                0x08000dd8                HAL_PCD_IRQHandler
 .text.HAL_PCD_SetAddress
                0x080016ec       0x42 Drivers\STM32F4xx_HAL_Driver\Src\stm32f4xx_hal_pcd.o
                0x080016ec                HAL_PCD_SetAddress
 .text.HAL_PCD_EP_Open
                0x0800172e       0xd0 Drivers\STM32F4xx_HAL_Driver\Src\stm32f4xx_hal_pcd.o
                0x0800172e                HAL_PCD_EP_Open
 .text.HAL_PCD_EP_Close
                0x080017fe       0x94 Drivers\STM32F4xx_HAL_Driver\Src\stm32f4xx_hal_pcd.o
                0x080017fe                HAL_PCD_EP_Close
 .text.HAL_PCD_EP_Receive
                0x08001892       0x94 Drivers\STM32F4xx_HAL_Driver\Src\stm32f4xx_hal_pcd.o
                0x08001892                HAL_PCD_EP_Receive
 .text.HAL_PCD_EP_GetRxCount
                0x08001926       0x32 Drivers\STM32F4xx_HAL_Driver\Src\stm32f4xx_hal_pcd.o
                0x08001926                HAL_PCD_EP_GetRxCount
 .text.HAL_PCD_EP_Transmit
                0x08001958       0x92 Drivers\STM32F4xx_HAL_Driver\Src\stm32f4xx_hal_pcd.o
                0x08001958                HAL_PCD_EP_Transmit
 .text.HAL_PCD_EP_SetStall
                0x080019ea       0xb6 Drivers\STM32F4xx_HAL_Driver\Src\stm32f4xx_hal_pcd.o
                0x080019ea                HAL_PCD_EP_SetStall
 .text.HAL_PCD_EP_ClrStall
                0x08001aa0       0x96 Drivers\STM32F4xx_HAL_Driver\Src\stm32f4xx_hal_pcd.o
                0x08001aa0                HAL_PCD_EP_ClrStall
 .text.PCD_WriteEmptyTxFifo
                0x08001b36      0x104 Drivers\STM32F4xx_HAL_Driver\Src\stm32f4xx_hal_pcd.o
 .text.HAL_PCDEx_SetTxFiFo
                0x08001c3a       0x96 Drivers\STM32F4xx_HAL_Driver\Src\stm32f4xx_hal_pcd_ex.o
                0x08001c3a                HAL_PCDEx_SetTxFiFo
 .text.HAL_PCDEx_SetRxFiFo
                0x08001cd0       0x22 Drivers\STM32F4xx_HAL_Driver\Src\stm32f4xx_hal_pcd_ex.o
                0x08001cd0                HAL_PCDEx_SetRxFiFo
 *fill*         0x08001cf2        0x2 
 .text.HAL_RCC_OscConfig
                0x08001cf4      0x484 Drivers\STM32F4xx_HAL_Driver\Src\stm32f4xx_hal_rcc.o
                0x08001cf4                HAL_RCC_OscConfig
 .text.HAL_RCC_ClockConfig
                0x08002178      0x1c4 Drivers\STM32F4xx_HAL_Driver\Src\stm32f4xx_hal_rcc.o
                0x08002178                HAL_RCC_ClockConfig
 .text.HAL_RCC_GetSysClockFreq
                0x0800233c      0x1b0 Drivers\STM32F4xx_HAL_Driver\Src\stm32f4xx_hal_rcc.o
                0x0800233c                HAL_RCC_GetSysClockFreq
 .text.HAL_RCC_GetHCLKFreq
                0x080024ec       0x18 Drivers\STM32F4xx_HAL_Driver\Src\stm32f4xx_hal_rcc.o
                0x080024ec                HAL_RCC_GetHCLKFreq
 .text.HAL_RCC_GetPCLK2Freq
                0x08002504       0x28 Drivers\STM32F4xx_HAL_Driver\Src\stm32f4xx_hal_rcc.o
                0x08002504                HAL_RCC_GetPCLK2Freq
 .text.HAL_RCC_GetClockConfig
                0x0800252c       0x64 Drivers\STM32F4xx_HAL_Driver\Src\stm32f4xx_hal_rcc.o
                0x0800252c                HAL_RCC_GetClockConfig
 .text.HAL_TIM_Base_Init
                0x08002590       0x56 Drivers\STM32F4xx_HAL_Driver\Src\stm32f4xx_hal_tim.o
                0x08002590                HAL_TIM_Base_Init
 .text.HAL_TIM_Base_MspInit
                0x080025e6       0x14 Drivers\STM32F4xx_HAL_Driver\Src\stm32f4xx_hal_tim.o
                0x080025e6                HAL_TIM_Base_MspInit
 .text.HAL_TIM_Base_Start_IT
                0x080025fa       0x36 Drivers\STM32F4xx_HAL_Driver\Src\stm32f4xx_hal_tim.o
                0x080025fa                HAL_TIM_Base_Start_IT
 .text.HAL_TIM_IRQHandler
                0x08002630      0x210 Drivers\STM32F4xx_HAL_Driver\Src\stm32f4xx_hal_tim.o
                0x08002630                HAL_TIM_IRQHandler
 .text.HAL_TIM_OC_DelayElapsedCallback
                0x08002840       0x14 Drivers\STM32F4xx_HAL_Driver\Src\stm32f4xx_hal_tim.o
                0x08002840                HAL_TIM_OC_DelayElapsedCallback
 .text.HAL_TIM_IC_CaptureCallback
                0x08002854       0x14 Drivers\STM32F4xx_HAL_Driver\Src\stm32f4xx_hal_tim.o
                0x08002854                HAL_TIM_IC_CaptureCallback
 .text.HAL_TIM_PWM_PulseFinishedCallback
                0x08002868       0x14 Drivers\STM32F4xx_HAL_Driver\Src\stm32f4xx_hal_tim.o
                0x08002868                HAL_TIM_PWM_PulseFinishedCallback
 .text.HAL_TIM_TriggerCallback
                0x0800287c       0x14 Drivers\STM32F4xx_HAL_Driver\Src\stm32f4xx_hal_tim.o
                0x0800287c                HAL_TIM_TriggerCallback
 .text.TIM_Base_SetConfig
                0x08002890      0x108 Drivers\STM32F4xx_HAL_Driver\Src\stm32f4xx_hal_tim.o
                0x08002890                TIM_Base_SetConfig
 .text.HAL_TIMEx_CommutationCallback
                0x08002998       0x14 Drivers\STM32F4xx_HAL_Driver\Src\stm32f4xx_hal_tim_ex.o
                0x08002998                HAL_TIMEx_CommutationCallback
 .text.HAL_TIMEx_BreakCallback
                0x080029ac       0x14 Drivers\STM32F4xx_HAL_Driver\Src\stm32f4xx_hal_tim_ex.o
                0x080029ac                HAL_TIMEx_BreakCallback
 .text.USB_CoreInit
                0x080029c0       0xa2 Drivers\STM32F4xx_HAL_Driver\Src\stm32f4xx_ll_usb.o
                0x080029c0                USB_CoreInit
 .text.USB_EnableGlobalInt
                0x08002a62       0x22 Drivers\STM32F4xx_HAL_Driver\Src\stm32f4xx_ll_usb.o
                0x08002a62                USB_EnableGlobalInt
 .text.USB_DisableGlobalInt
                0x08002a84       0x22 Drivers\STM32F4xx_HAL_Driver\Src\stm32f4xx_ll_usb.o
                0x08002a84                USB_DisableGlobalInt
 .text.USB_SetCurrentMode
                0x08002aa6       0x4e Drivers\STM32F4xx_HAL_Driver\Src\stm32f4xx_ll_usb.o
                0x08002aa6                USB_SetCurrentMode
 .text.USB_DevInit
                0x08002af4      0x264 Drivers\STM32F4xx_HAL_Driver\Src\stm32f4xx_ll_usb.o
                0x08002af4                USB_DevInit
 .text.USB_FlushTxFifo
                0x08002d58       0x4c Drivers\STM32F4xx_HAL_Driver\Src\stm32f4xx_ll_usb.o
                0x08002d58                USB_FlushTxFifo
 .text.USB_FlushRxFifo
                0x08002da4       0x44 Drivers\STM32F4xx_HAL_Driver\Src\stm32f4xx_ll_usb.o
                0x08002da4                USB_FlushRxFifo
 .text.USB_SetDevSpeed
                0x08002de8       0x30 Drivers\STM32F4xx_HAL_Driver\Src\stm32f4xx_ll_usb.o
                0x08002de8                USB_SetDevSpeed
 .text.USB_GetDevSpeed
                0x08002e18       0x6a Drivers\STM32F4xx_HAL_Driver\Src\stm32f4xx_ll_usb.o
                0x08002e18                USB_GetDevSpeed
 .text.USB_ActivateEndpoint
                0x08002e82      0x112 Drivers\STM32F4xx_HAL_Driver\Src\stm32f4xx_ll_usb.o
                0x08002e82                USB_ActivateEndpoint
 .text.USB_DeactivateEndpoint
                0x08002f94      0x184 Drivers\STM32F4xx_HAL_Driver\Src\stm32f4xx_ll_usb.o
                0x08002f94                USB_DeactivateEndpoint
 .text.USB_EPStartXfer
                0x08003118      0x484 Drivers\STM32F4xx_HAL_Driver\Src\stm32f4xx_ll_usb.o
                0x08003118                USB_EPStartXfer
 .text.USB_EP0StartXfer
                0x0800359c      0x2be Drivers\STM32F4xx_HAL_Driver\Src\stm32f4xx_ll_usb.o
                0x0800359c                USB_EP0StartXfer
 .text.USB_WritePacket
                0x0800385a       0x6a Drivers\STM32F4xx_HAL_Driver\Src\stm32f4xx_ll_usb.o
                0x0800385a                USB_WritePacket
 .text.USB_ReadPacket
                0x080038c4       0x4e Drivers\STM32F4xx_HAL_Driver\Src\stm32f4xx_ll_usb.o
                0x080038c4                USB_ReadPacket
 .text.USB_EPSetStall
                0x08003912       0xe2 Drivers\STM32F4xx_HAL_Driver\Src\stm32f4xx_ll_usb.o
                0x08003912                USB_EPSetStall
 .text.USB_EPClearStall
                0x080039f4       0xda Drivers\STM32F4xx_HAL_Driver\Src\stm32f4xx_ll_usb.o
                0x080039f4                USB_EPClearStall
 .text.USB_SetDevAddress
                0x08003ace       0x4c Drivers\STM32F4xx_HAL_Driver\Src\stm32f4xx_ll_usb.o
                0x08003ace                USB_SetDevAddress
 .text.USB_DevConnect
                0x08003b1a       0x2e Drivers\STM32F4xx_HAL_Driver\Src\stm32f4xx_ll_usb.o
                0x08003b1a                USB_DevConnect
 .text.USB_DevDisconnect
                0x08003b48       0x2e Drivers\STM32F4xx_HAL_Driver\Src\stm32f4xx_ll_usb.o
                0x08003b48                USB_DevDisconnect
 .text.USB_ReadInterrupts
                0x08003b76       0x2a Drivers\STM32F4xx_HAL_Driver\Src\stm32f4xx_ll_usb.o
                0x08003b76                USB_ReadInterrupts
 .text.USB_ReadDevAllOutEpInterrupt
                0x08003ba0       0x30 Drivers\STM32F4xx_HAL_Driver\Src\stm32f4xx_ll_usb.o
                0x08003ba0                USB_ReadDevAllOutEpInterrupt
 .text.USB_ReadDevAllInEpInterrupt
                0x08003bd0       0x30 Drivers\STM32F4xx_HAL_Driver\Src\stm32f4xx_ll_usb.o
                0x08003bd0                USB_ReadDevAllInEpInterrupt
 .text.USB_ReadDevOutEPInterrupt
                0x08003c00       0x38 Drivers\STM32F4xx_HAL_Driver\Src\stm32f4xx_ll_usb.o
                0x08003c00                USB_ReadDevOutEPInterrupt
 .text.USB_ReadDevInEPInterrupt
                0x08003c38       0x54 Drivers\STM32F4xx_HAL_Driver\Src\stm32f4xx_ll_usb.o
                0x08003c38                USB_ReadDevInEPInterrupt
 .text.USB_GetMode
                0x08003c8c       0x1c Drivers\STM32F4xx_HAL_Driver\Src\stm32f4xx_ll_usb.o
                0x08003c8c                USB_GetMode
 .text.USB_ActivateSetup
                0x08003ca8       0x6c Drivers\STM32F4xx_HAL_Driver\Src\stm32f4xx_ll_usb.o
                0x08003ca8                USB_ActivateSetup
 .text.USB_EP0_OutStart
                0x08003d14       0x8a Drivers\STM32F4xx_HAL_Driver\Src\stm32f4xx_ll_usb.o
                0x08003d14                USB_EP0_OutStart
 *fill*         0x08003d9e        0x2 
 .text.USB_CoreReset
                0x08003da0       0x68 Drivers\STM32F4xx_HAL_Driver\Src\stm32f4xx_ll_usb.o
 .text.MX_USB_DEVICE_Init
                0x08003e08       0x44 Middlewares\ST\STM32_USB_Device_Library\App\Src\usb_device.o
                0x08003e08                MX_USB_DEVICE_Init
 .text.HAL_PCD_MspInit
                0x08003e4c       0x98 Middlewares\ST\STM32_USB_Device_Library\App\Src\usbd_conf.o
                0x08003e4c                HAL_PCD_MspInit
 .text.HAL_PCD_SetupStageCallback
                0x08003ee4       0x24 Middlewares\ST\STM32_USB_Device_Library\App\Src\usbd_conf.o
                0x08003ee4                HAL_PCD_SetupStageCallback
 .text.HAL_PCD_DataOutStageCallback
                0x08003f08       0x36 Middlewares\ST\STM32_USB_Device_Library\App\Src\usbd_conf.o
                0x08003f08                HAL_PCD_DataOutStageCallback
 .text.HAL_PCD_DataInStageCallback
                0x08003f3e       0x34 Middlewares\ST\STM32_USB_Device_Library\App\Src\usbd_conf.o
                0x08003f3e                HAL_PCD_DataInStageCallback
 .text.HAL_PCD_SOFCallback
                0x08003f72       0x1c Middlewares\ST\STM32_USB_Device_Library\App\Src\usbd_conf.o
                0x08003f72                HAL_PCD_SOFCallback
 .text.HAL_PCD_ResetCallback
                0x08003f8e       0x50 Middlewares\ST\STM32_USB_Device_Library\App\Src\usbd_conf.o
                0x08003f8e                HAL_PCD_ResetCallback
 *fill*         0x08003fde        0x2 
 .text.HAL_PCD_SuspendCallback
                0x08003fe0       0x50 Middlewares\ST\STM32_USB_Device_Library\App\Src\usbd_conf.o
                0x08003fe0                HAL_PCD_SuspendCallback
 .text.HAL_PCD_ResumeCallback
                0x08004030       0x1c Middlewares\ST\STM32_USB_Device_Library\App\Src\usbd_conf.o
                0x08004030                HAL_PCD_ResumeCallback
 .text.HAL_PCD_ISOOUTIncompleteCallback
                0x0800404c       0x24 Middlewares\ST\STM32_USB_Device_Library\App\Src\usbd_conf.o
                0x0800404c                HAL_PCD_ISOOUTIncompleteCallback
 .text.HAL_PCD_ISOINIncompleteCallback
                0x08004070       0x24 Middlewares\ST\STM32_USB_Device_Library\App\Src\usbd_conf.o
                0x08004070                HAL_PCD_ISOINIncompleteCallback
 .text.HAL_PCD_ConnectCallback
                0x08004094       0x1c Middlewares\ST\STM32_USB_Device_Library\App\Src\usbd_conf.o
                0x08004094                HAL_PCD_ConnectCallback
 .text.HAL_PCD_DisconnectCallback
                0x080040b0       0x1c Middlewares\ST\STM32_USB_Device_Library\App\Src\usbd_conf.o
                0x080040b0                HAL_PCD_DisconnectCallback
 .text.USBD_LL_Init
                0x080040cc       0xbc Middlewares\ST\STM32_USB_Device_Library\App\Src\usbd_conf.o
                0x080040cc                USBD_LL_Init
 .text.USBD_LL_Start
                0x08004188       0x64 Middlewares\ST\STM32_USB_Device_Library\App\Src\usbd_conf.o
                0x08004188                USBD_LL_Start
 .text.USBD_LL_OpenEP
                0x080041ec       0x88 Middlewares\ST\STM32_USB_Device_Library\App\Src\usbd_conf.o
                0x080041ec                USBD_LL_OpenEP
 .text.USBD_LL_CloseEP
                0x08004274       0x7c Middlewares\ST\STM32_USB_Device_Library\App\Src\usbd_conf.o
                0x08004274                USBD_LL_CloseEP
 .text.USBD_LL_StallEP
                0x080042f0       0x6c Middlewares\ST\STM32_USB_Device_Library\App\Src\usbd_conf.o
                0x080042f0                USBD_LL_StallEP
 .text.USBD_LL_ClearStallEP
                0x0800435c       0x6c Middlewares\ST\STM32_USB_Device_Library\App\Src\usbd_conf.o
                0x0800435c                USBD_LL_ClearStallEP
 .text.USBD_LL_IsStallEP
                0x080043c8       0x58 Middlewares\ST\STM32_USB_Device_Library\App\Src\usbd_conf.o
                0x080043c8                USBD_LL_IsStallEP
 .text.USBD_LL_SetUSBAddress
                0x08004420       0x6c Middlewares\ST\STM32_USB_Device_Library\App\Src\usbd_conf.o
                0x08004420                USBD_LL_SetUSBAddress
 .text.USBD_LL_Transmit
                0x0800448c       0x84 Middlewares\ST\STM32_USB_Device_Library\App\Src\usbd_conf.o
                0x0800448c                USBD_LL_Transmit
 .text.USBD_LL_PrepareReceive
                0x08004510       0x84 Middlewares\ST\STM32_USB_Device_Library\App\Src\usbd_conf.o
                0x08004510                USBD_LL_PrepareReceive
 .text.USBD_LL_GetRxDataSize
                0x08004594       0x34 Middlewares\ST\STM32_USB_Device_Library\App\Src\usbd_conf.o
                0x08004594                USBD_LL_GetRxDataSize
 .text.OTG_FS_IRQHandler
                0x080045c8       0x14 Middlewares\ST\STM32_USB_Device_Library\App\Src\usbd_conf.o
                0x080045c8                OTG_FS_IRQHandler
 .text.USBD_FS_DeviceDescriptor
                0x080045dc       0x24 Middlewares\ST\STM32_USB_Device_Library\App\Src\usbd_desc.o
                0x080045dc                USBD_FS_DeviceDescriptor
 .text.USBD_FS_LangIDStrDescriptor
                0x08004600       0x24 Middlewares\ST\STM32_USB_Device_Library\App\Src\usbd_desc.o
                0x08004600                USBD_FS_LangIDStrDescriptor
 .text.USBD_FS_ProductStrDescriptor
                0x08004624       0x3c Middlewares\ST\STM32_USB_Device_Library\App\Src\usbd_desc.o
                0x08004624                USBD_FS_ProductStrDescriptor
 .text.USBD_FS_ManufacturerStrDescriptor
                0x08004660       0x28 Middlewares\ST\STM32_USB_Device_Library\App\Src\usbd_desc.o
                0x08004660                USBD_FS_ManufacturerStrDescriptor
 .text.USBD_FS_SerialStrDescriptor
                0x08004688       0x3c Middlewares\ST\STM32_USB_Device_Library\App\Src\usbd_desc.o
                0x08004688                USBD_FS_SerialStrDescriptor
 .text.USBD_FS_ConfigStrDescriptor
                0x080046c4       0x3c Middlewares\ST\STM32_USB_Device_Library\App\Src\usbd_desc.o
                0x080046c4                USBD_FS_ConfigStrDescriptor
 .text.USBD_FS_InterfaceStrDescriptor
                0x08004700       0x3c Middlewares\ST\STM32_USB_Device_Library\App\Src\usbd_desc.o
                0x08004700                USBD_FS_InterfaceStrDescriptor
 .text.RNDIS_Disconnect
                0x0800473c       0x3c Middlewares\ST\STM32_USB_Device_Library\App\Src\usbd_rndis_if.o
                0x0800473c                RNDIS_Disconnect
 .text.RNDIS_Init_FS
                0x08004778       0x28 Middlewares\ST\STM32_USB_Device_Library\App\Src\usbd_rndis_if.o
 .text.RNDIS_DeInit_FS
                0x080047a0        0xe Middlewares\ST\STM32_USB_Device_Library\App\Src\usbd_rndis_if.o
 *fill*         0x080047ae        0x2 
 .text.RNDIS_Control_FS
                0x080047b0      0x858 Middlewares\ST\STM32_USB_Device_Library\App\Src\usbd_rndis_if.o
 .text.RNDIS_Receive_FS
                0x08005008       0xe8 Middlewares\ST\STM32_USB_Device_Library\App\Src\usbd_rndis_if.o
 .text.RNDIS_Transmit_FS
                0x080050f0       0xec Middlewares\ST\STM32_USB_Device_Library\App\Src\usbd_rndis_if.o
                0x080050f0                RNDIS_Transmit_FS
 .text.xNetworkInterfaceInitialise
                0x080051dc       0x44 Middlewares\ST\STM32_USB_Device_Library\App\Src\usbd_rndis_if.o
                0x080051dc                xNetworkInterfaceInitialise
 .text.xNetworkInterfaceOutput
                0x08005220       0x36 Middlewares\ST\STM32_USB_Device_Library\App\Src\usbd_rndis_if.o
                0x08005220                xNetworkInterfaceOutput
 *fill*         0x08005256        0x2 
 .text.prvEMACHandlerTask
                0x08005258       0xa0 Middlewares\ST\STM32_USB_Device_Library\App\Src\usbd_rndis_if.o
 .text.USBD_COMPOSITE_Init
                0x080052f8       0xc4 Middlewares\ST\STM32_USB_Device_Library\Class\Composite\Src\usbd_composite.o
 .text.USBD_COMPOSITE_DeInit
                0x080053bc       0xc4 Middlewares\ST\STM32_USB_Device_Library\Class\Composite\Src\usbd_composite.o
 .text.USBD_COMPOSITE_Setup
                0x08005480      0x1f4 Middlewares\ST\STM32_USB_Device_Library\Class\Composite\Src\usbd_composite.o
 .text.USBD_COMPOSITE_DataIn
                0x08005674      0x138 Middlewares\ST\STM32_USB_Device_Library\Class\Composite\Src\usbd_composite.o
 .text.USBD_COMPOSITE_DataOut
                0x080057ac      0x138 Middlewares\ST\STM32_USB_Device_Library\Class\Composite\Src\usbd_composite.o
 .text.USBD_COMPOSITE_EP0_RxReady
                0x080058e4       0xd0 Middlewares\ST\STM32_USB_Device_Library\Class\Composite\Src\usbd_composite.o
 .text.USBD_COMPOSITE_EP0_TxReady
                0x080059b4       0xd0 Middlewares\ST\STM32_USB_Device_Library\Class\Composite\Src\usbd_composite.o
 .text.USBD_COMPOSITE_SOF
                0x08005a84       0xd0 Middlewares\ST\STM32_USB_Device_Library\Class\Composite\Src\usbd_composite.o
 .text.USBD_COMPOSITE_IsoINIncomplete
                0x08005b54      0x138 Middlewares\ST\STM32_USB_Device_Library\Class\Composite\Src\usbd_composite.o
 .text.USBD_COMPOSITE_IsoOutIncomplete
                0x08005c8c      0x138 Middlewares\ST\STM32_USB_Device_Library\Class\Composite\Src\usbd_composite.o
 .text.USBD_COMPOSITE_GetFSCfgDesc
                0x08005dc4       0x28 Middlewares\ST\STM32_USB_Device_Library\Class\Composite\Src\usbd_composite.o
 .text.USBD_COMPOSITE_GetHSCfgDesc
                0x08005dec       0x18 Middlewares\ST\STM32_USB_Device_Library\Class\Composite\Src\usbd_composite.o
 .text.USBD_COMPOSITE_GetOtherSpeedCfgDesc
                0x08005e04       0x18 Middlewares\ST\STM32_USB_Device_Library\Class\Composite\Src\usbd_composite.o
 .text.USBD_COMPOSITE_GetDeviceQualifierDescriptor
                0x08005e1c       0x20 Middlewares\ST\STM32_USB_Device_Library\Class\Composite\Src\usbd_composite.o
                0x08005e1c                USBD_COMPOSITE_GetDeviceQualifierDescriptor
 .text.USBD_COMPOSITE_RegisterClass
                0x08005e3c      0x514 Middlewares\ST\STM32_USB_Device_Library\Class\Composite\Src\usbd_composite.o
                0x08005e3c                USBD_COMPOSITE_RegisterClass
 .text.USBD_COMPOSITE_LL_EP_Conversion
                0x08006350      0x150 Middlewares\ST\STM32_USB_Device_Library\Class\Composite\Src\usbd_composite.o
                0x08006350                USBD_COMPOSITE_LL_EP_Conversion
 .text.USBD_RNDIS_Init
                0x080064a0       0xd4 Middlewares\ST\STM32_USB_Device_Library\Class\RNDIS\Src\usbd_rndis.o
 .text.USBD_RNDIS_DeInit
                0x08006574       0x5a Middlewares\ST\STM32_USB_Device_Library\Class\RNDIS\Src\usbd_rndis.o
 *fill*         0x080065ce        0x2 
 .text.USBD_RNDIS_Setup
                0x080065d0       0xb0 Middlewares\ST\STM32_USB_Device_Library\Class\RNDIS\Src\usbd_rndis.o
 .text.USBD_RNDIS_DataIn
                0x08006680       0x38 Middlewares\ST\STM32_USB_Device_Library\Class\RNDIS\Src\usbd_rndis.o
 .text.USBD_RNDIS_DataOut
                0x080066b8       0x56 Middlewares\ST\STM32_USB_Device_Library\Class\RNDIS\Src\usbd_rndis.o
 .text.USBD_RNDIS_EP0_RxReady
                0x0800670e       0x50 Middlewares\ST\STM32_USB_Device_Library\Class\RNDIS\Src\usbd_rndis.o
 *fill*         0x0800675e        0x2 
 .text.USBD_RNDIS_GetFSCfgDesc
                0x08006760       0x20 Middlewares\ST\STM32_USB_Device_Library\Class\RNDIS\Src\usbd_rndis.o
 .text.USBD_RNDIS_GetHSCfgDesc
                0x08006780       0x20 Middlewares\ST\STM32_USB_Device_Library\Class\RNDIS\Src\usbd_rndis.o
 .text.USBD_RNDIS_GetOtherSpeedCfgDesc
                0x080067a0       0x20 Middlewares\ST\STM32_USB_Device_Library\Class\RNDIS\Src\usbd_rndis.o
 .text.USBD_RNDIS_GetDeviceQualifierDescriptor
                0x080067c0       0x20 Middlewares\ST\STM32_USB_Device_Library\Class\RNDIS\Src\usbd_rndis.o
                0x080067c0                USBD_RNDIS_GetDeviceQualifierDescriptor
 .text.USBD_RNDIS_RegisterInterface
                0x080067e0       0x2e Middlewares\ST\STM32_USB_Device_Library\Class\RNDIS\Src\usbd_rndis.o
                0x080067e0                USBD_RNDIS_RegisterInterface
 .text.USBD_RNDIS_SetTxBuffer
                0x0800680e       0x34 Middlewares\ST\STM32_USB_Device_Library\Class\RNDIS\Src\usbd_rndis.o
                0x0800680e                USBD_RNDIS_SetTxBuffer
 .text.USBD_RNDIS_SetRxBuffer
                0x08006842       0x28 Middlewares\ST\STM32_USB_Device_Library\Class\RNDIS\Src\usbd_rndis.o
                0x08006842                USBD_RNDIS_SetRxBuffer
 .text.USBD_RNDIS_TransmitPacket
                0x0800686a       0x54 Middlewares\ST\STM32_USB_Device_Library\Class\RNDIS\Src\usbd_rndis.o
                0x0800686a                USBD_RNDIS_TransmitPacket
 .text.USBD_RNDIS_ReceivePacket
                0x080068be       0x54 Middlewares\ST\STM32_USB_Device_Library\Class\RNDIS\Src\usbd_rndis.o
                0x080068be                USBD_RNDIS_ReceivePacket
 .text.USBD_RNDIS_TransmitControl
                0x08006912       0x24 Middlewares\ST\STM32_USB_Device_Library\Class\RNDIS\Src\usbd_rndis.o
                0x08006912                USBD_RNDIS_TransmitControl
 .text.USBD_Init
                0x08006936       0x56 Middlewares\ST\STM32_USB_Device_Library\Core\Src\usbd_core.o
                0x08006936                USBD_Init
 .text.USBD_RegisterClass
                0x0800698c       0x34 Middlewares\ST\STM32_USB_Device_Library\Core\Src\usbd_core.o
                0x0800698c                USBD_RegisterClass
 .text.USBD_Start
                0x080069c0       0x18 Middlewares\ST\STM32_USB_Device_Library\Core\Src\usbd_core.o
                0x080069c0                USBD_Start
 .text.USBD_RunTestMode
                0x080069d8       0x16 Middlewares\ST\STM32_USB_Device_Library\Core\Src\usbd_core.o
                0x080069d8                USBD_RunTestMode
 .text.USBD_SetClassConfig
                0x080069ee       0x3e Middlewares\ST\STM32_USB_Device_Library\Core\Src\usbd_core.o
                0x080069ee                USBD_SetClassConfig
 .text.USBD_ClrClassConfig
                0x08006a2c       0x26 Middlewares\ST\STM32_USB_Device_Library\Core\Src\usbd_core.o
                0x08006a2c                USBD_ClrClassConfig
 .text.USBD_LL_SetupStage
                0x08006a52       0x94 Middlewares\ST\STM32_USB_Device_Library\Core\Src\usbd_core.o
                0x08006a52                USBD_LL_SetupStage
 .text.USBD_LL_DataOutStage
                0x08006ae6       0xb6 Middlewares\ST\STM32_USB_Device_Library\Core\Src\usbd_core.o
                0x08006ae6                USBD_LL_DataOutStage
 .text.USBD_LL_DataInStage
                0x08006b9c      0x11e Middlewares\ST\STM32_USB_Device_Library\Core\Src\usbd_core.o
                0x08006b9c                USBD_LL_DataInStage
 .text.USBD_LL_Reset
                0x08006cba       0x5e Middlewares\ST\STM32_USB_Device_Library\Core\Src\usbd_core.o
                0x08006cba                USBD_LL_Reset
 .text.USBD_LL_SetSpeed
                0x08006d18       0x20 Middlewares\ST\STM32_USB_Device_Library\Core\Src\usbd_core.o
                0x08006d18                USBD_LL_SetSpeed
 .text.USBD_LL_Suspend
                0x08006d38       0x2a Middlewares\ST\STM32_USB_Device_Library\Core\Src\usbd_core.o
                0x08006d38                USBD_LL_Suspend
 .text.USBD_LL_Resume
                0x08006d62       0x22 Middlewares\ST\STM32_USB_Device_Library\Core\Src\usbd_core.o
                0x08006d62                USBD_LL_Resume
 .text.USBD_LL_SOF
                0x08006d84       0x34 Middlewares\ST\STM32_USB_Device_Library\Core\Src\usbd_core.o
                0x08006d84                USBD_LL_SOF
 .text.USBD_LL_IsoINIncomplete
                0x08006db8       0x1a Middlewares\ST\STM32_USB_Device_Library\Core\Src\usbd_core.o
                0x08006db8                USBD_LL_IsoINIncomplete
 .text.USBD_LL_IsoOUTIncomplete
                0x08006dd2       0x1a Middlewares\ST\STM32_USB_Device_Library\Core\Src\usbd_core.o
                0x08006dd2                USBD_LL_IsoOUTIncomplete
 .text.USBD_LL_DevConnected
                0x08006dec       0x16 Middlewares\ST\STM32_USB_Device_Library\Core\Src\usbd_core.o
                0x08006dec                USBD_LL_DevConnected
 .text.USBD_LL_DevDisconnected
                0x08006e02       0x2e Middlewares\ST\STM32_USB_Device_Library\Core\Src\usbd_core.o
                0x08006e02                USBD_LL_DevDisconnected
 .text.USBD_StdDevReq
                0x08006e30       0xa0 Middlewares\ST\STM32_USB_Device_Library\Core\Src\usbd_ctlreq.o
                0x08006e30                USBD_StdDevReq
 .text.USBD_StdItfReq
                0x08006ed0       0x66 Middlewares\ST\STM32_USB_Device_Library\Core\Src\usbd_ctlreq.o
                0x08006ed0                USBD_StdItfReq
 .text.USBD_StdEPReq
                0x08006f36      0x1b0 Middlewares\ST\STM32_USB_Device_Library\Core\Src\usbd_ctlreq.o
                0x08006f36                USBD_StdEPReq
 *fill*         0x080070e6        0x2 
 .text.USBD_GetDescriptor
                0x080070e8      0x1e8 Middlewares\ST\STM32_USB_Device_Library\Core\Src\usbd_ctlreq.o
 .text.USBD_SetAddress
                0x080072d0       0x7c Middlewares\ST\STM32_USB_Device_Library\Core\Src\usbd_ctlreq.o
 .text.USBD_SetConfig
                0x0800734c      0x110 Middlewares\ST\STM32_USB_Device_Library\Core\Src\usbd_ctlreq.o
 .text.USBD_GetConfig
                0x0800745c       0x64 Middlewares\ST\STM32_USB_Device_Library\Core\Src\usbd_ctlreq.o
 .text.USBD_GetStatus
                0x080074c0       0x54 Middlewares\ST\STM32_USB_Device_Library\Core\Src\usbd_ctlreq.o
 .text.USBD_SetFeature
                0x08007514       0x36 Middlewares\ST\STM32_USB_Device_Library\Core\Src\usbd_ctlreq.o
 .text.USBD_ClrFeature
                0x0800754a       0x50 Middlewares\ST\STM32_USB_Device_Library\Core\Src\usbd_ctlreq.o
 .text.USBD_ParseSetupRequest
                0x0800759a       0x7a Middlewares\ST\STM32_USB_Device_Library\Core\Src\usbd_ctlreq.o
                0x0800759a                USBD_ParseSetupRequest
 .text.USBD_CtlError
                0x08007614       0x22 Middlewares\ST\STM32_USB_Device_Library\Core\Src\usbd_ctlreq.o
                0x08007614                USBD_CtlError
 .text.USBD_GetString
                0x08007636       0x86 Middlewares\ST\STM32_USB_Device_Library\Core\Src\usbd_ctlreq.o
                0x08007636                USBD_GetString
 .text.USBD_GetLen
                0x080076bc       0x30 Middlewares\ST\STM32_USB_Device_Library\Core\Src\usbd_ctlreq.o
 .text.USBD_CtlSendData
                0x080076ec       0x38 Middlewares\ST\STM32_USB_Device_Library\Core\Src\usbd_ioreq.o
                0x080076ec                USBD_CtlSendData
 .text.USBD_CtlContinueSendData
                0x08007724       0x24 Middlewares\ST\STM32_USB_Device_Library\Core\Src\usbd_ioreq.o
                0x08007724                USBD_CtlContinueSendData
 .text.USBD_CtlPrepareRx
                0x08007748       0x3c Middlewares\ST\STM32_USB_Device_Library\Core\Src\usbd_ioreq.o
                0x08007748                USBD_CtlPrepareRx
 .text.USBD_CtlContinueRx
                0x08007784       0x24 Middlewares\ST\STM32_USB_Device_Library\Core\Src\usbd_ioreq.o
                0x08007784                USBD_CtlContinueRx
 .text.USBD_CtlSendStatus
                0x080077a8       0x26 Middlewares\ST\STM32_USB_Device_Library\Core\Src\usbd_ioreq.o
                0x080077a8                USBD_CtlSendStatus
 .text.USBD_CtlReceiveStatus
                0x080077ce       0x26 Middlewares\ST\STM32_USB_Device_Library\Core\Src\usbd_ioreq.o
                0x080077ce                USBD_CtlReceiveStatus
 .text.makeFreeRtosPriority
                0x080077f4       0x30 Middlewares\Third_Party\FreeRTOS\Source\CMSIS_RTOS\cmsis_os.o
 .text.osKernelStart
                0x08007824        0xe Middlewares\Third_Party\FreeRTOS\Source\CMSIS_RTOS\cmsis_os.o
                0x08007824                osKernelStart
 .text.osThreadCreate
                0x08007832       0x4e Middlewares\Third_Party\FreeRTOS\Source\CMSIS_RTOS\cmsis_os.o
                0x08007832                osThreadCreate
 .text.osDelay  0x08007880       0x28 Middlewares\Third_Party\FreeRTOS\Source\CMSIS_RTOS\cmsis_os.o
                0x08007880                osDelay
 .text.osSystickHandler
                0x080078a8       0x16 Middlewares\Third_Party\FreeRTOS\Source\CMSIS_RTOS\cmsis_os.o
                0x080078a8                osSystickHandler
 .text.xEventGroupCreate
                0x080078be       0x2e Middlewares\Third_Party\FreeRTOS\Source\event_groups.o
                0x080078be                xEventGroupCreate
 .text.xEventGroupWaitBits
                0x080078ec      0x190 Middlewares\Third_Party\FreeRTOS\Source\event_groups.o
                0x080078ec                xEventGroupWaitBits
 .text.xEventGroupClearBits
                0x08007a7c       0x6c Middlewares\Third_Party\FreeRTOS\Source\event_groups.o
                0x08007a7c                xEventGroupClearBits
 .text.xEventGroupSetBits
                0x08007ae8      0x112 Middlewares\Third_Party\FreeRTOS\Source\event_groups.o
                0x08007ae8                xEventGroupSetBits
 .text.vEventGroupDelete
                0x08007bfa       0x60 Middlewares\Third_Party\FreeRTOS\Source\event_groups.o
                0x08007bfa                vEventGroupDelete
 .text.prvTestWaitCondition
                0x08007c5a       0x44 Middlewares\Third_Party\FreeRTOS\Source\event_groups.o
 .text.vListInitialise
                0x08007c9e       0x40 Middlewares\Third_Party\FreeRTOS\Source\list.o
                0x08007c9e                vListInitialise
 .text.vListInitialiseItem
                0x08007cde       0x1a Middlewares\Third_Party\FreeRTOS\Source\list.o
                0x08007cde                vListInitialiseItem
 .text.vListInsertEnd
                0x08007cf8       0x48 Middlewares\Third_Party\FreeRTOS\Source\list.o
                0x08007cf8                vListInsertEnd
 .text.vListInsert
                0x08007d40       0x72 Middlewares\Third_Party\FreeRTOS\Source\list.o
                0x08007d40                vListInsert
 .text.uxListRemove
                0x08007db2       0x54 Middlewares\Third_Party\FreeRTOS\Source\list.o
                0x08007db2                uxListRemove
 *fill*         0x08007e06        0x2 
 .text.pxPortInitialiseStack
                0x08007e08       0x68 Middlewares\Third_Party\FreeRTOS\Source\portable\GCC\ARM_CM4F\port.o
                0x08007e08                pxPortInitialiseStack
 .text.prvTaskExitError
                0x08007e70       0x3c Middlewares\Third_Party\FreeRTOS\Source\portable\GCC\ARM_CM4F\port.o
 *fill*         0x08007eac        0x4 
 .text.SVC_Handler
                0x08007eb0       0x28 Middlewares\Third_Party\FreeRTOS\Source\portable\GCC\ARM_CM4F\port.o
                0x08007eb0                SVC_Handler
 .text.prvPortStartFirstTask
                0x08007ed8       0x20 Middlewares\Third_Party\FreeRTOS\Source\portable\GCC\ARM_CM4F\port.o
 .text.xPortStartScheduler
                0x08007ef8      0x118 Middlewares\Third_Party\FreeRTOS\Source\portable\GCC\ARM_CM4F\port.o
                0x08007ef8                xPortStartScheduler
 .text.vPortEnterCritical
                0x08008010       0x5c Middlewares\Third_Party\FreeRTOS\Source\portable\GCC\ARM_CM4F\port.o
                0x08008010                vPortEnterCritical
 .text.vPortExitCritical
                0x0800806c       0x50 Middlewares\Third_Party\FreeRTOS\Source\portable\GCC\ARM_CM4F\port.o
                0x0800806c                vPortExitCritical
 *fill*         0x080080bc        0x4 
 .text.PendSV_Handler
                0x080080c0       0x68 Middlewares\Third_Party\FreeRTOS\Source\portable\GCC\ARM_CM4F\port.o
                0x080080c0                PendSV_Handler
 .text.xPortSysTickHandler
                0x08008128       0x40 Middlewares\Third_Party\FreeRTOS\Source\portable\GCC\ARM_CM4F\port.o
                0x08008128                xPortSysTickHandler
 .text.vPortSetupTimerInterrupt
                0x08008168       0x38 Middlewares\Third_Party\FreeRTOS\Source\portable\GCC\ARM_CM4F\port.o
                0x08008168                vPortSetupTimerInterrupt
 .text.vPortEnableVFP
                0x080081a0       0x14 Middlewares\Third_Party\FreeRTOS\Source\portable\GCC\ARM_CM4F\port.o
 .text.vPortValidateInterruptPriority
                0x080081b4       0x7c Middlewares\Third_Party\FreeRTOS\Source\portable\GCC\ARM_CM4F\port.o
                0x080081b4                vPortValidateInterruptPriority
 .text.pvPortMalloc
                0x08008230      0x184 Middlewares\Third_Party\FreeRTOS\Source\portable\MemMang\heap_4.o
                0x08008230                pvPortMalloc
 .text.vPortFree
                0x080083b4       0xb0 Middlewares\Third_Party\FreeRTOS\Source\portable\MemMang\heap_4.o
                0x080083b4                vPortFree
 .text.prvHeapInit
                0x08008464       0xc4 Middlewares\Third_Party\FreeRTOS\Source\portable\MemMang\heap_4.o
 .text.prvInsertBlockIntoFreeList
                0x08008528       0xb4 Middlewares\Third_Party\FreeRTOS\Source\portable\MemMang\heap_4.o
 .text.xQueueGenericReset
                0x080085dc       0xd0 Middlewares\Third_Party\FreeRTOS\Source\queue.o
                0x080085dc                xQueueGenericReset
 .text.xQueueGenericCreate
                0x080086ac       0x72 Middlewares\Third_Party\FreeRTOS\Source\queue.o
                0x080086ac                xQueueGenericCreate
 .text.prvInitialiseNewQueue
                0x0800871e       0x3e Middlewares\Third_Party\FreeRTOS\Source\queue.o
 .text.xQueueCreateCountingSemaphore
                0x0800875c       0x62 Middlewares\Third_Party\FreeRTOS\Source\queue.o
                0x0800875c                xQueueCreateCountingSemaphore
 *fill*         0x080087be        0x2 
 .text.xQueueGenericSend
                0x080087c0      0x1f4 Middlewares\Third_Party\FreeRTOS\Source\queue.o
                0x080087c0                xQueueGenericSend
 .text.xQueueGenericSendFromISR
                0x080089b4      0x128 Middlewares\Third_Party\FreeRTOS\Source\queue.o
                0x080089b4                xQueueGenericSendFromISR
 .text.xQueueGenericReceive
                0x08008adc      0x224 Middlewares\Third_Party\FreeRTOS\Source\queue.o
                0x08008adc                xQueueGenericReceive
 .text.uxQueueMessagesWaiting
                0x08008d00       0x3a Middlewares\Third_Party\FreeRTOS\Source\queue.o
                0x08008d00                uxQueueMessagesWaiting
 .text.vQueueDelete
                0x08008d3a       0x3a Middlewares\Third_Party\FreeRTOS\Source\queue.o
                0x08008d3a                vQueueDelete
 .text.prvCopyDataToQueue
                0x08008d74       0xd4 Middlewares\Third_Party\FreeRTOS\Source\queue.o
 .text.prvCopyDataFromQueue
                0x08008e48       0x4c Middlewares\Third_Party\FreeRTOS\Source\queue.o
 .text.prvUnlockQueue
                0x08008e94       0xa4 Middlewares\Third_Party\FreeRTOS\Source\queue.o
 .text.prvIsQueueEmpty
                0x08008f38       0x2c Middlewares\Third_Party\FreeRTOS\Source\queue.o
 .text.prvIsQueueFull
                0x08008f64       0x30 Middlewares\Third_Party\FreeRTOS\Source\queue.o
 .text.vQueueAddToRegistry
                0x08008f94       0x50 Middlewares\Third_Party\FreeRTOS\Source\queue.o
                0x08008f94                vQueueAddToRegistry
 .text.vQueueUnregisterQueue
                0x08008fe4       0x54 Middlewares\Third_Party\FreeRTOS\Source\queue.o
                0x08008fe4                vQueueUnregisterQueue
 .text.xTaskCreate
                0x08009038       0x82 Middlewares\Third_Party\FreeRTOS\Source\tasks.o
                0x08009038                xTaskCreate
 .text.prvInitialiseNewTask
                0x080090ba      0x10c Middlewares\Third_Party\FreeRTOS\Source\tasks.o
 *fill*         0x080091c6        0x2 
 .text.prvAddNewTaskToReadyList
                0x080091c8       0xd4 Middlewares\Third_Party\FreeRTOS\Source\tasks.o
 .text.vTaskDelay
                0x0800929c       0x68 Middlewares\Third_Party\FreeRTOS\Source\tasks.o
                0x0800929c                vTaskDelay
 .text.vTaskStartScheduler
                0x08009304       0x8c Middlewares\Third_Party\FreeRTOS\Source\tasks.o
                0x08009304                vTaskStartScheduler
 .text.vTaskSuspendAll
                0x08009390       0x1c Middlewares\Third_Party\FreeRTOS\Source\tasks.o
                0x08009390                vTaskSuspendAll
 .text.xTaskResumeAll
                0x080093ac      0x138 Middlewares\Third_Party\FreeRTOS\Source\tasks.o
                0x080093ac                xTaskResumeAll
 .text.xTaskGetTickCount
                0x080094e4       0x20 Middlewares\Third_Party\FreeRTOS\Source\tasks.o
                0x080094e4                xTaskGetTickCount
 .text.xTaskIncrementTick
                0x08009504      0x178 Middlewares\Third_Party\FreeRTOS\Source\tasks.o
                0x08009504                xTaskIncrementTick
 .text.vTaskSwitchContext
                0x0800967c      0x100 Middlewares\Third_Party\FreeRTOS\Source\tasks.o
                0x0800967c                vTaskSwitchContext
 .text.vTaskPlaceOnEventList
                0x0800977c       0x48 Middlewares\Third_Party\FreeRTOS\Source\tasks.o
                0x0800977c                vTaskPlaceOnEventList
 .text.vTaskPlaceOnUnorderedEventList
                0x080097c4       0x74 Middlewares\Third_Party\FreeRTOS\Source\tasks.o
                0x080097c4                vTaskPlaceOnUnorderedEventList
 .text.xTaskRemoveFromEventList
                0x08009838       0xc4 Middlewares\Third_Party\FreeRTOS\Source\tasks.o
                0x08009838                xTaskRemoveFromEventList
 .text.xTaskRemoveFromUnorderedEventList
                0x080098fc       0xcc Middlewares\Third_Party\FreeRTOS\Source\tasks.o
                0x080098fc                xTaskRemoveFromUnorderedEventList
 .text.vTaskSetTimeOutState
                0x080099c8       0x48 Middlewares\Third_Party\FreeRTOS\Source\tasks.o
                0x080099c8                vTaskSetTimeOutState
 .text.xTaskCheckForTimeOut
                0x08009a10       0xbc Middlewares\Third_Party\FreeRTOS\Source\tasks.o
                0x08009a10                xTaskCheckForTimeOut
 .text.vTaskMissedYield
                0x08009acc       0x18 Middlewares\Third_Party\FreeRTOS\Source\tasks.o
                0x08009acc                vTaskMissedYield
 .text.prvIdleTask
                0x08009ae4       0x30 Middlewares\Third_Party\FreeRTOS\Source\tasks.o
 .text.prvInitialiseTaskLists
                0x08009b14       0x80 Middlewares\Third_Party\FreeRTOS\Source\tasks.o
 .text.prvCheckTasksWaitingTermination
                0x08009b94       0x78 Middlewares\Third_Party\FreeRTOS\Source\tasks.o
 .text.prvDeleteTCB
                0x08009c0c       0x20 Middlewares\Third_Party\FreeRTOS\Source\tasks.o
 .text.prvResetNextTaskUnblockTime
                0x08009c2c       0x4c Middlewares\Third_Party\FreeRTOS\Source\tasks.o
 .text.xTaskGetCurrentTaskHandle
                0x08009c78       0x20 Middlewares\Third_Party\FreeRTOS\Source\tasks.o
                0x08009c78                xTaskGetCurrentTaskHandle
 .text.xTaskGetSchedulerState
                0x08009c98       0x3c Middlewares\Third_Party\FreeRTOS\Source\tasks.o
                0x08009c98                xTaskGetSchedulerState
 .text.vTaskPriorityInherit
                0x08009cd4       0xec Middlewares\Third_Party\FreeRTOS\Source\tasks.o
                0x08009cd4                vTaskPriorityInherit
 .text.xTaskPriorityDisinherit
                0x08009dc0      0x108 Middlewares\Third_Party\FreeRTOS\Source\tasks.o
                0x08009dc0                xTaskPriorityDisinherit
 .text.uxTaskResetEventItemValue
                0x08009ec8       0x30 Middlewares\Third_Party\FreeRTOS\Source\tasks.o
                0x08009ec8                uxTaskResetEventItemValue
 .text.pvTaskIncrementMutexHeldCount
                0x08009ef8       0x28 Middlewares\Third_Party\FreeRTOS\Source\tasks.o
                0x08009ef8                pvTaskIncrementMutexHeldCount
 .text.ulTaskNotifyTake
                0x08009f20       0x90 Middlewares\Third_Party\FreeRTOS\Source\tasks.o
                0x08009f20                ulTaskNotifyTake
 .text.vTaskNotifyGiveFromISR
                0x08009fb0      0x120 Middlewares\Third_Party\FreeRTOS\Source\tasks.o
                0x08009fb0                vTaskNotifyGiveFromISR
 .text.prvAddCurrentTaskToDelayedList
                0x0800a0d0       0xcc Middlewares\Third_Party\FreeRTOS\Source\tasks.o
 .text.eARPProcessPacket
                0x0800a19c       0xf4 Middlewares\Third_Party\FreeRTOS-Plus-TCP\FreeRTOS_ARP.o
                0x0800a19c                eARPProcessPacket
 .text.vARPRefreshCacheEntry
                0x0800a290      0x1f4 Middlewares\Third_Party\FreeRTOS-Plus-TCP\FreeRTOS_ARP.o
                0x0800a290                vARPRefreshCacheEntry
 .text.eARPGetCacheEntry
                0x0800a484       0xdc Middlewares\Third_Party\FreeRTOS-Plus-TCP\FreeRTOS_ARP.o
                0x0800a484                eARPGetCacheEntry
 .text.prvCacheLookup
                0x0800a560       0x80 Middlewares\Third_Party\FreeRTOS-Plus-TCP\FreeRTOS_ARP.o
 .text.vARPAgeCache
                0x0800a5e0      0x11c Middlewares\Third_Party\FreeRTOS-Plus-TCP\FreeRTOS_ARP.o
                0x0800a5e0                vARPAgeCache
 .text.FreeRTOS_OutputARPRequest
                0x0800a6fc       0x34 Middlewares\Third_Party\FreeRTOS-Plus-TCP\FreeRTOS_ARP.o
                0x0800a6fc                FreeRTOS_OutputARPRequest
 .text.vARPGenerateRequestPacket
                0x0800a730       0x84 Middlewares\Third_Party\FreeRTOS-Plus-TCP\FreeRTOS_ARP.o
                0x0800a730                vARPGenerateRequestPacket
 .text.usChar2u16
                0x0800a7b4       0x2a Middlewares\Third_Party\FreeRTOS-Plus-TCP\FreeRTOS_DNS.o
 .text.prvReadNameField
                0x0800a7de       0xfa Middlewares\Third_Party\FreeRTOS-Plus-TCP\FreeRTOS_DNS.o
 .text.prvSkipNameField
                0x0800a8d8       0x92 Middlewares\Third_Party\FreeRTOS-Plus-TCP\FreeRTOS_DNS.o
 .text.ulDNSHandlePacket
                0x0800a96a       0x48 Middlewares\Third_Party\FreeRTOS-Plus-TCP\FreeRTOS_DNS.o
                0x0800a96a                ulDNSHandlePacket
 *fill*         0x0800a9b2        0x2 
 .text.prvParseDNSReply
                0x0800a9b4      0x470 Middlewares\Third_Party\FreeRTOS-Plus-TCP\FreeRTOS_DNS.o
 .text.prvReplyDNSMessage
                0x0800ae24      0x124 Middlewares\Third_Party\FreeRTOS-Plus-TCP\FreeRTOS_DNS.o
 .text.prvProcessDNSCache
                0x0800af48      0x208 Middlewares\Third_Party\FreeRTOS-Plus-TCP\FreeRTOS_DNS.o
 .text.prvIPTask
                0x0800b150      0x160 Middlewares\Third_Party\FreeRTOS-Plus-TCP\FreeRTOS_IP.o
 .text.xIsCallingFromIPTask
                0x0800b2b0       0x2c Middlewares\Third_Party\FreeRTOS-Plus-TCP\FreeRTOS_IP.o
                0x0800b2b0                xIsCallingFromIPTask
 .text.prvHandleEthernetPacket
                0x0800b2dc       0x16 Middlewares\Third_Party\FreeRTOS-Plus-TCP\FreeRTOS_IP.o
 *fill*         0x0800b2f2        0x2 
 .text.prvCalculateSleepTime
                0x0800b2f4       0x50 Middlewares\Third_Party\FreeRTOS-Plus-TCP\FreeRTOS_IP.o
 .text.prvCheckNetworkTimers
                0x0800b344       0x80 Middlewares\Third_Party\FreeRTOS-Plus-TCP\FreeRTOS_IP.o
 .text.prvIPTimerStart
                0x0800b3c4       0x48 Middlewares\Third_Party\FreeRTOS-Plus-TCP\FreeRTOS_IP.o
 .text.prvIPTimerReload
                0x0800b40c       0x20 Middlewares\Third_Party\FreeRTOS-Plus-TCP\FreeRTOS_IP.o
 .text.prvIPTimerCheck
                0x0800b42c       0x60 Middlewares\Third_Party\FreeRTOS-Plus-TCP\FreeRTOS_IP.o
 .text.FreeRTOS_NetworkDown
                0x0800b48c       0x38 Middlewares\Third_Party\FreeRTOS-Plus-TCP\FreeRTOS_IP.o
                0x0800b48c                FreeRTOS_NetworkDown
 .text.FreeRTOS_NetworkDownFromISR
                0x0800b4c4       0x44 Middlewares\Third_Party\FreeRTOS-Plus-TCP\FreeRTOS_IP.o
                0x0800b4c4                FreeRTOS_NetworkDownFromISR
 .text.pxDuplicateNetworkBufferWithDescriptor
                0x0800b508       0x56 Middlewares\Third_Party\FreeRTOS-Plus-TCP\FreeRTOS_IP.o
                0x0800b508                pxDuplicateNetworkBufferWithDescriptor
 .text.pxUDPPayloadBuffer_to_NetworkBuffer
                0x0800b55e       0x42 Middlewares\Third_Party\FreeRTOS-Plus-TCP\FreeRTOS_IP.o
                0x0800b55e                pxUDPPayloadBuffer_to_NetworkBuffer
 .text.FreeRTOS_IPInit
                0x0800b5a0      0x208 Middlewares\Third_Party\FreeRTOS-Plus-TCP\FreeRTOS_IP.o
                0x0800b5a0                FreeRTOS_IPInit
 .text.xSendEventToIPTask
                0x0800b7a8       0x2c Middlewares\Third_Party\FreeRTOS-Plus-TCP\FreeRTOS_IP.o
                0x0800b7a8                xSendEventToIPTask
 .text.xSendEventStructToIPTask
                0x0800b7d4       0x94 Middlewares\Third_Party\FreeRTOS-Plus-TCP\FreeRTOS_IP.o
                0x0800b7d4                xSendEventStructToIPTask
 .text.eConsiderFrameForProcessing
                0x0800b868       0xa0 Middlewares\Third_Party\FreeRTOS-Plus-TCP\FreeRTOS_IP.o
                0x0800b868                eConsiderFrameForProcessing
 .text.prvProcessNetworkDownEvent
                0x0800b908       0x4c Middlewares\Third_Party\FreeRTOS-Plus-TCP\FreeRTOS_IP.o
 .text.vIPNetworkUpCalls
                0x0800b954       0x28 Middlewares\Third_Party\FreeRTOS-Plus-TCP\FreeRTOS_IP.o
                0x0800b954                vIPNetworkUpCalls
 .text.prvProcessEthernetPacket
                0x0800b97c       0xba Middlewares\Third_Party\FreeRTOS-Plus-TCP\FreeRTOS_IP.o
 *fill*         0x0800ba36        0x2 
 .text.prvAllowIPPacket
                0x0800ba38       0x94 Middlewares\Third_Party\FreeRTOS-Plus-TCP\FreeRTOS_IP.o
 .text.prvProcessIPPacket
                0x0800bacc      0x1dc Middlewares\Third_Party\FreeRTOS-Plus-TCP\FreeRTOS_IP.o
 .text.prvProcessICMPEchoRequest
                0x0800bca8       0xb0 Middlewares\Third_Party\FreeRTOS-Plus-TCP\FreeRTOS_IP.o
 .text.prvProcessICMPPacket
                0x0800bd58       0x34 Middlewares\Third_Party\FreeRTOS-Plus-TCP\FreeRTOS_IP.o
 .text.usGenerateProtocolChecksum
                0x0800bd8c      0x1d0 Middlewares\Third_Party\FreeRTOS-Plus-TCP\FreeRTOS_IP.o
                0x0800bd8c                usGenerateProtocolChecksum
 .text.usGenerateChecksum
                0x0800bf5c      0x1a8 Middlewares\Third_Party\FreeRTOS-Plus-TCP\FreeRTOS_IP.o
                0x0800bf5c                usGenerateChecksum
 .text.vReturnEthernetFrame
                0x0800c104       0x40 Middlewares\Third_Party\FreeRTOS-Plus-TCP\FreeRTOS_IP.o
                0x0800c104                vReturnEthernetFrame
 .text.FreeRTOS_GetIPAddress
                0x0800c144       0x18 Middlewares\Third_Party\FreeRTOS-Plus-TCP\FreeRTOS_IP.o
                0x0800c144                FreeRTOS_GetIPAddress
 .text.xIPIsNetworkTaskReady
                0x0800c15c       0x18 Middlewares\Third_Party\FreeRTOS-Plus-TCP\FreeRTOS_IP.o
                0x0800c15c                xIPIsNetworkTaskReady
 .text.FreeRTOS_max_uint32
                0x0800c174       0x20 Middlewares\Third_Party\FreeRTOS-Plus-TCP\FreeRTOS_Sockets.o
 .text.FreeRTOS_min_int32
                0x0800c194       0x20 Middlewares\Third_Party\FreeRTOS-Plus-TCP\FreeRTOS_Sockets.o
 .text.FreeRTOS_min_uint32
                0x0800c1b4       0x20 Middlewares\Third_Party\FreeRTOS-Plus-TCP\FreeRTOS_Sockets.o
 .text.FreeRTOS_round_up
                0x0800c1d4       0x2a Middlewares\Third_Party\FreeRTOS-Plus-TCP\FreeRTOS_Sockets.o
 .text.vStreamBufferClear
                0x0800c1fe       0x2c Middlewares\Third_Party\FreeRTOS-Plus-TCP\FreeRTOS_Sockets.o
 .text.uxStreamBufferSpace
                0x0800c22a       0x3e Middlewares\Third_Party\FreeRTOS-Plus-TCP\FreeRTOS_Sockets.o
 .text.uxStreamBufferDistance
                0x0800c268       0x3c Middlewares\Third_Party\FreeRTOS-Plus-TCP\FreeRTOS_Sockets.o
 .text.uxStreamBufferGetSpace
                0x0800c2a4       0x28 Middlewares\Third_Party\FreeRTOS-Plus-TCP\FreeRTOS_Sockets.o
 .text.uxStreamBufferFrontSpace
                0x0800c2cc       0x28 Middlewares\Third_Party\FreeRTOS-Plus-TCP\FreeRTOS_Sockets.o
 .text.uxStreamBufferGetSize
                0x0800c2f4       0x28 Middlewares\Third_Party\FreeRTOS-Plus-TCP\FreeRTOS_Sockets.o
 .text.uxStreamBufferGetPtr
                0x0800c31c       0x40 Middlewares\Third_Party\FreeRTOS-Plus-TCP\FreeRTOS_Sockets.o
 .text.prvValidSocket
                0x0800c35c       0x58 Middlewares\Third_Party\FreeRTOS-Plus-TCP\FreeRTOS_Sockets.o
 .text.vNetworkSocketsInit
                0x0800c3b4       0x20 Middlewares\Third_Party\FreeRTOS-Plus-TCP\FreeRTOS_Sockets.o
                0x0800c3b4                vNetworkSocketsInit
 .text.prvDetermineSocketSize
                0x0800c3d4      0x110 Middlewares\Third_Party\FreeRTOS-Plus-TCP\FreeRTOS_Sockets.o
 .text.FreeRTOS_socket
                0x0800c4e4      0x130 Middlewares\Third_Party\FreeRTOS-Plus-TCP\FreeRTOS_Sockets.o
                0x0800c4e4                FreeRTOS_socket
 .text.FreeRTOS_bind
                0x0800c614       0xbe Middlewares\Third_Party\FreeRTOS-Plus-TCP\FreeRTOS_Sockets.o
                0x0800c614                FreeRTOS_bind
 *fill*         0x0800c6d2        0x2 
 .text.vSocketBind
                0x0800c6d4      0x130 Middlewares\Third_Party\FreeRTOS-Plus-TCP\FreeRTOS_Sockets.o
                0x0800c6d4                vSocketBind
 .text.FreeRTOS_closesocket
                0x0800c804       0x4c Middlewares\Third_Party\FreeRTOS-Plus-TCP\FreeRTOS_Sockets.o
                0x0800c804                FreeRTOS_closesocket
 .text.vSocketClose
                0x0800c850       0xc0 Middlewares\Third_Party\FreeRTOS-Plus-TCP\FreeRTOS_Sockets.o
                0x0800c850                vSocketClose
 .text.prvTCPSetSocketCount
                0x0800c910       0x70 Middlewares\Third_Party\FreeRTOS-Plus-TCP\FreeRTOS_Sockets.o
 .text.FreeRTOS_setsockopt
                0x0800c980      0x340 Middlewares\Third_Party\FreeRTOS-Plus-TCP\FreeRTOS_Sockets.o
                0x0800c980                FreeRTOS_setsockopt
 .text.prvGetPrivatePortNumber
                0x0800ccc0       0xc0 Middlewares\Third_Party\FreeRTOS-Plus-TCP\FreeRTOS_Sockets.o
 .text.pxListFindListItemWithValue
                0x0800cd80       0x54 Middlewares\Third_Party\FreeRTOS-Plus-TCP\FreeRTOS_Sockets.o
 .text.pxUDPSocketLookup
                0x0800cdd4       0x4c Middlewares\Third_Party\FreeRTOS-Plus-TCP\FreeRTOS_Sockets.o
                0x0800cdd4                pxUDPSocketLookup
 .text.vSocketWakeUpUser
                0x0800ce20       0x76 Middlewares\Third_Party\FreeRTOS-Plus-TCP\FreeRTOS_Sockets.o
                0x0800ce20                vSocketWakeUpUser
 .text.FreeRTOS_accept
                0x0800ce96      0x19c Middlewares\Third_Party\FreeRTOS-Plus-TCP\FreeRTOS_Sockets.o
                0x0800ce96                FreeRTOS_accept
 .text.FreeRTOS_recv
                0x0800d032      0x1a8 Middlewares\Third_Party\FreeRTOS-Plus-TCP\FreeRTOS_Sockets.o
                0x0800d032                FreeRTOS_recv
 .text.prvTCPSendCheck
                0x0800d1da       0x9a Middlewares\Third_Party\FreeRTOS-Plus-TCP\FreeRTOS_Sockets.o
 .text.FreeRTOS_send
                0x0800d274      0x180 Middlewares\Third_Party\FreeRTOS-Plus-TCP\FreeRTOS_Sockets.o
                0x0800d274                FreeRTOS_send
 .text.FreeRTOS_listen
                0x0800d3f4       0xd8 Middlewares\Third_Party\FreeRTOS-Plus-TCP\FreeRTOS_Sockets.o
                0x0800d3f4                FreeRTOS_listen
 .text.xTCPTimerCheck
                0x0800d4cc       0xe8 Middlewares\Third_Party\FreeRTOS-Plus-TCP\FreeRTOS_Sockets.o
                0x0800d4cc                xTCPTimerCheck
 .text.pxTCPSocketLookup
                0x0800d5b4       0x8c Middlewares\Third_Party\FreeRTOS-Plus-TCP\FreeRTOS_Sockets.o
                0x0800d5b4                pxTCPSocketLookup
 .text.prvTCPCreateStream
                0x0800d640       0xbc Middlewares\Third_Party\FreeRTOS-Plus-TCP\FreeRTOS_Sockets.o
 .text.lTCPAddRxdata
                0x0800d6fc       0xc4 Middlewares\Third_Party\FreeRTOS-Plus-TCP\FreeRTOS_Sockets.o
                0x0800d6fc                lTCPAddRxdata
 .text.FreeRTOS_tx_space
                0x0800d7c0       0x46 Middlewares\Third_Party\FreeRTOS-Plus-TCP\FreeRTOS_Sockets.o
                0x0800d7c0                FreeRTOS_tx_space
 .text.FreeRTOS_tx_size
                0x0800d806       0x44 Middlewares\Third_Party\FreeRTOS-Plus-TCP\FreeRTOS_Sockets.o
                0x0800d806                FreeRTOS_tx_size
 .text.FreeRTOS_rx_size
                0x0800d84a       0x44 Middlewares\Third_Party\FreeRTOS-Plus-TCP\FreeRTOS_Sockets.o
                0x0800d84a                FreeRTOS_rx_size
 *fill*         0x0800d88e        0x2 
 .text.vSocketSelect
                0x0800d890      0x23c Middlewares\Third_Party\FreeRTOS-Plus-TCP\FreeRTOS_Sockets.o
                0x0800d890                vSocketSelect
 .text.FreeRTOS_min_uint32
                0x0800dacc       0x20 Middlewares\Third_Party\FreeRTOS-Plus-TCP\FreeRTOS_Stream_Buffer.o
 .text.uxStreamBufferSpace
                0x0800daec       0x3e Middlewares\Third_Party\FreeRTOS-Plus-TCP\FreeRTOS_Stream_Buffer.o
 .text.uxStreamBufferDistance
                0x0800db2a       0x3c Middlewares\Third_Party\FreeRTOS-Plus-TCP\FreeRTOS_Stream_Buffer.o
 .text.uxStreamBufferGetSpace
                0x0800db66       0x28 Middlewares\Third_Party\FreeRTOS-Plus-TCP\FreeRTOS_Stream_Buffer.o
 .text.uxStreamBufferGetSize
                0x0800db8e       0x28 Middlewares\Third_Party\FreeRTOS-Plus-TCP\FreeRTOS_Stream_Buffer.o
 .text.xStreamBufferLessThenEqual
                0x0800dbb6       0x6a Middlewares\Third_Party\FreeRTOS-Plus-TCP\FreeRTOS_Stream_Buffer.o
 .text.uxStreamBufferAdd
                0x0800dc20       0xfc Middlewares\Third_Party\FreeRTOS-Plus-TCP\FreeRTOS_Stream_Buffer.o
                0x0800dc20                uxStreamBufferAdd
 .text.uxStreamBufferGet
                0x0800dd1c       0xe8 Middlewares\Third_Party\FreeRTOS-Plus-TCP\FreeRTOS_Stream_Buffer.o
                0x0800dd1c                uxStreamBufferGet
 .text.FreeRTOS_max_int32
                0x0800de04       0x20 Middlewares\Third_Party\FreeRTOS-Plus-TCP\FreeRTOS_TCP_IP.o
 .text.FreeRTOS_min_int32
                0x0800de24       0x20 Middlewares\Third_Party\FreeRTOS-Plus-TCP\FreeRTOS_TCP_IP.o
 .text.FreeRTOS_min_uint32
                0x0800de44       0x20 Middlewares\Third_Party\FreeRTOS-Plus-TCP\FreeRTOS_TCP_IP.o
 .text.uxStreamBufferSpace
                0x0800de64       0x3e Middlewares\Third_Party\FreeRTOS-Plus-TCP\FreeRTOS_TCP_IP.o
 .text.uxStreamBufferDistance
                0x0800dea2       0x3c Middlewares\Third_Party\FreeRTOS-Plus-TCP\FreeRTOS_TCP_IP.o
 .text.uxStreamBufferGetSpace
                0x0800dede       0x28 Middlewares\Third_Party\FreeRTOS-Plus-TCP\FreeRTOS_TCP_IP.o
 .text.uxStreamBufferFrontSpace
                0x0800df06       0x28 Middlewares\Third_Party\FreeRTOS-Plus-TCP\FreeRTOS_TCP_IP.o
 .text.uxStreamBufferMidSpace
                0x0800df2e       0x28 Middlewares\Third_Party\FreeRTOS-Plus-TCP\FreeRTOS_TCP_IP.o
 .text.vStreamBufferMoveMid
                0x0800df56       0x4c Middlewares\Third_Party\FreeRTOS-Plus-TCP\FreeRTOS_TCP_IP.o
 .text.ulChar2u32
                0x0800dfa2       0x36 Middlewares\Third_Party\FreeRTOS-Plus-TCP\FreeRTOS_TCP_IP.o
 .text.usChar2u16
                0x0800dfd8       0x2a Middlewares\Third_Party\FreeRTOS-Plus-TCP\FreeRTOS_TCP_IP.o
 *fill*         0x0800e002        0x2 
 .text.prvTCPSocketIsActive
                0x0800e004       0x58 Middlewares\Third_Party\FreeRTOS-Plus-TCP\FreeRTOS_TCP_IP.o
 .text.prvTCPStatusAgeCheck
                0x0800e05c       0xac Middlewares\Third_Party\FreeRTOS-Plus-TCP\FreeRTOS_TCP_IP.o
 .text.xTCPSocketCheck
                0x0800e108       0xc4 Middlewares\Third_Party\FreeRTOS-Plus-TCP\FreeRTOS_TCP_IP.o
                0x0800e108                xTCPSocketCheck
 .text.prvTCPSendPacket
                0x0800e1cc       0xb6 Middlewares\Third_Party\FreeRTOS-Plus-TCP\FreeRTOS_TCP_IP.o
 .text.prvTCPSendRepeated
                0x0800e282       0x5a Middlewares\Third_Party\FreeRTOS-Plus-TCP\FreeRTOS_TCP_IP.o
 .text.prvTCPReturnPacket
                0x0800e2dc      0x3c0 Middlewares\Third_Party\FreeRTOS-Plus-TCP\FreeRTOS_TCP_IP.o
 .text.prvTCPCreateWindow
                0x0800e69c       0x50 Middlewares\Third_Party\FreeRTOS-Plus-TCP\FreeRTOS_TCP_IP.o
 .text.prvTCPPrepareConnect
                0x0800e6ec      0x1b4 Middlewares\Third_Party\FreeRTOS-Plus-TCP\FreeRTOS_TCP_IP.o
 .text.prvCheckOptions
                0x0800e8a0      0x24c Middlewares\Third_Party\FreeRTOS-Plus-TCP\FreeRTOS_TCP_IP.o
 .text.prvWinScaleFactor
                0x0800eaec       0x42 Middlewares\Third_Party\FreeRTOS-Plus-TCP\FreeRTOS_TCP_IP.o
 .text.prvSetSynAckOptions
                0x0800eb2e       0xa8 Middlewares\Third_Party\FreeRTOS-Plus-TCP\FreeRTOS_TCP_IP.o
 .text.prvTCPTouchSocket
                0x0800ebd6       0x48 Middlewares\Third_Party\FreeRTOS-Plus-TCP\FreeRTOS_TCP_IP.o
 .text.vTCPStateChange
                0x0800ec1e      0x1b6 Middlewares\Third_Party\FreeRTOS-Plus-TCP\FreeRTOS_TCP_IP.o
                0x0800ec1e                vTCPStateChange
 .text.prvTCPBufferResize
                0x0800edd4       0xc8 Middlewares\Third_Party\FreeRTOS-Plus-TCP\FreeRTOS_TCP_IP.o
 .text.prvTCPPrepareSend
                0x0800ee9c      0x2ce Middlewares\Third_Party\FreeRTOS-Plus-TCP\FreeRTOS_TCP_IP.o
 *fill*         0x0800f16a        0x2 
 .text.prvTCPNextTimeout
                0x0800f16c      0x100 Middlewares\Third_Party\FreeRTOS-Plus-TCP\FreeRTOS_TCP_IP.o
 .text.prvTCPAddTxData
                0x0800f26c       0x54 Middlewares\Third_Party\FreeRTOS-Plus-TCP\FreeRTOS_TCP_IP.o
 .text.prvTCPHandleFin
                0x0800f2c0      0x14a Middlewares\Third_Party\FreeRTOS-Plus-TCP\FreeRTOS_TCP_IP.o
 .text.prvCheckRxData
                0x0800f40a       0xce Middlewares\Third_Party\FreeRTOS-Plus-TCP\FreeRTOS_TCP_IP.o
 .text.prvStoreRxData
                0x0800f4d8       0xe8 Middlewares\Third_Party\FreeRTOS-Plus-TCP\FreeRTOS_TCP_IP.o
 .text.prvSetOptions
                0x0800f5c0       0xbc Middlewares\Third_Party\FreeRTOS-Plus-TCP\FreeRTOS_TCP_IP.o
 .text.prvHandleSynReceived
                0x0800f67c      0x182 Middlewares\Third_Party\FreeRTOS-Plus-TCP\FreeRTOS_TCP_IP.o
 .text.prvHandleEstablished
                0x0800f7fe      0x22c Middlewares\Third_Party\FreeRTOS-Plus-TCP\FreeRTOS_TCP_IP.o
 *fill*         0x0800fa2a        0x2 
 .text.prvSendData
                0x0800fa2c      0x17c Middlewares\Third_Party\FreeRTOS-Plus-TCP\FreeRTOS_TCP_IP.o
 .text.prvTCPHandleState
                0x0800fba8      0x220 Middlewares\Third_Party\FreeRTOS-Plus-TCP\FreeRTOS_TCP_IP.o
 .text.prvTCPSendReset
                0x0800fdc8       0x38 Middlewares\Third_Party\FreeRTOS-Plus-TCP\FreeRTOS_TCP_IP.o
 .text.prvSocketSetMSS
                0x0800fe00       0x78 Middlewares\Third_Party\FreeRTOS-Plus-TCP\FreeRTOS_TCP_IP.o
 .text.xProcessReceivedTCPPacket
                0x0800fe78      0x242 Middlewares\Third_Party\FreeRTOS-Plus-TCP\FreeRTOS_TCP_IP.o
                0x0800fe78                xProcessReceivedTCPPacket
 .text.prvHandleListen
                0x080100ba      0x166 Middlewares\Third_Party\FreeRTOS-Plus-TCP\FreeRTOS_TCP_IP.o
 .text.prvTCPSocketCopy
                0x08010220       0xec Middlewares\Third_Party\FreeRTOS-Plus-TCP\FreeRTOS_TCP_IP.o
 .text.xTCPCheckNewClient
                0x0801030c       0x88 Middlewares\Third_Party\FreeRTOS-Plus-TCP\FreeRTOS_TCP_IP.o
                0x0801030c                xTCPCheckNewClient
 .text.FreeRTOS_min_int32
                0x08010394       0x20 Middlewares\Third_Party\FreeRTOS-Plus-TCP\FreeRTOS_TCP_WIN.o
 .text.FreeRTOS_min_uint32
                0x080103b4       0x20 Middlewares\Third_Party\FreeRTOS-Plus-TCP\FreeRTOS_TCP_WIN.o
 .text.xSequenceLessThanOrEqual
                0x080103d4       0x22 Middlewares\Third_Party\FreeRTOS-Plus-TCP\FreeRTOS_TCP_WIN.o
 .text.xSequenceLessThan
                0x080103f6       0x24 Middlewares\Third_Party\FreeRTOS-Plus-TCP\FreeRTOS_TCP_WIN.o
 .text.xSequenceGreaterThan
                0x0801041a       0x24 Middlewares\Third_Party\FreeRTOS-Plus-TCP\FreeRTOS_TCP_WIN.o
 .text.xSequenceGreaterThanOrEqual
                0x0801043e       0x22 Middlewares\Third_Party\FreeRTOS-Plus-TCP\FreeRTOS_TCP_WIN.o
 .text.vListInsertFifo
                0x08010460       0x20 Middlewares\Third_Party\FreeRTOS-Plus-TCP\FreeRTOS_TCP_WIN.o
 .text.vTCPTimerSet
                0x08010480       0x1a Middlewares\Third_Party\FreeRTOS-Plus-TCP\FreeRTOS_TCP_WIN.o
 .text.ulTimerGetAge
                0x0801049a       0x1c Middlewares\Third_Party\FreeRTOS-Plus-TCP\FreeRTOS_TCP_WIN.o
 .text.vListInsertGeneric
                0x080104b6       0x44 Middlewares\Third_Party\FreeRTOS-Plus-TCP\FreeRTOS_TCP_WIN.o
                0x080104b6                vListInsertGeneric
 *fill*         0x080104fa        0x2 
 .text.prvCreateSectors
                0x080104fc       0xa0 Middlewares\Third_Party\FreeRTOS-Plus-TCP\FreeRTOS_TCP_WIN.o
 .text.xTCPWindowRxFind
                0x0801059c       0x4e Middlewares\Third_Party\FreeRTOS-Plus-TCP\FreeRTOS_TCP_WIN.o
 *fill*         0x080105ea        0x2 
 .text.xTCPWindowNew
                0x080105ec       0xcc Middlewares\Third_Party\FreeRTOS-Plus-TCP\FreeRTOS_TCP_WIN.o
 .text.xTCPWindowRxEmpty
                0x080106b8       0x42 Middlewares\Third_Party\FreeRTOS-Plus-TCP\FreeRTOS_TCP_WIN.o
                0x080106b8                xTCPWindowRxEmpty
 .text.xTCPWindowGetHead
                0x080106fa       0x3c Middlewares\Third_Party\FreeRTOS-Plus-TCP\FreeRTOS_TCP_WIN.o
 .text.xTCPWindowPeekHead
                0x08010736       0x3a Middlewares\Third_Party\FreeRTOS-Plus-TCP\FreeRTOS_TCP_WIN.o
 .text.vTCPWindowFree
                0x08010770       0x58 Middlewares\Third_Party\FreeRTOS-Plus-TCP\FreeRTOS_TCP_WIN.o
 .text.vTCPWindowDestroy
                0x080107c8       0x62 Middlewares\Third_Party\FreeRTOS-Plus-TCP\FreeRTOS_TCP_WIN.o
                0x080107c8                vTCPWindowDestroy
 *fill*         0x0801082a        0x2 
 .text.vTCPWindowCreate
                0x0801082c       0x70 Middlewares\Third_Party\FreeRTOS-Plus-TCP\FreeRTOS_TCP_WIN.o
                0x0801082c                vTCPWindowCreate
 .text.vTCPWindowInit
                0x0801089c       0xb6 Middlewares\Third_Party\FreeRTOS-Plus-TCP\FreeRTOS_TCP_WIN.o
                0x0801089c                vTCPWindowInit
 .text.xTCPWindowRxConfirm
                0x08010952       0x96 Middlewares\Third_Party\FreeRTOS-Plus-TCP\FreeRTOS_TCP_WIN.o
 .text.lTCPWindowRxCheck
                0x080109e8      0x1b8 Middlewares\Third_Party\FreeRTOS-Plus-TCP\FreeRTOS_TCP_WIN.o
                0x080109e8                lTCPWindowRxCheck
 .text.lTCPIncrementTxPosition
                0x08010ba0       0x32 Middlewares\Third_Party\FreeRTOS-Plus-TCP\FreeRTOS_TCP_WIN.o
 *fill*         0x08010bd2        0x2 
 .text.lTCPWindowTxAdd
                0x08010bd4      0x168 Middlewares\Third_Party\FreeRTOS-Plus-TCP\FreeRTOS_TCP_WIN.o
                0x08010bd4                lTCPWindowTxAdd
 .text.xTCPWindowTxDone
                0x08010d3c       0x24 Middlewares\Third_Party\FreeRTOS-Plus-TCP\FreeRTOS_TCP_WIN.o
                0x08010d3c                xTCPWindowTxDone
 .text.prvTCPWindowTxHasSpace
                0x08010d60       0x8c Middlewares\Third_Party\FreeRTOS-Plus-TCP\FreeRTOS_TCP_WIN.o
 .text.xTCPWindowTxHasData
                0x08010dec       0xc0 Middlewares\Third_Party\FreeRTOS-Plus-TCP\FreeRTOS_TCP_WIN.o
                0x08010dec                xTCPWindowTxHasData
 .text.ulTCPWindowTxGet
                0x08010eac      0x1a8 Middlewares\Third_Party\FreeRTOS-Plus-TCP\FreeRTOS_TCP_WIN.o
                0x08010eac                ulTCPWindowTxGet
 .text.prvTCPWindowTxCheckAck
                0x08011054      0x188 Middlewares\Third_Party\FreeRTOS-Plus-TCP\FreeRTOS_TCP_WIN.o
 .text.prvTCPWindowFastRetransmit
                0x080111dc       0xac Middlewares\Third_Party\FreeRTOS-Plus-TCP\FreeRTOS_TCP_WIN.o
 .text.ulTCPWindowTxAck
                0x08011288       0x3a Middlewares\Third_Party\FreeRTOS-Plus-TCP\FreeRTOS_TCP_WIN.o
                0x08011288                ulTCPWindowTxAck
 *fill*         0x080112c2        0x2 
 .text.ulTCPWindowTxSack
                0x080112c4       0x48 Middlewares\Third_Party\FreeRTOS-Plus-TCP\FreeRTOS_TCP_WIN.o
                0x080112c4                ulTCPWindowTxSack
 .text.vProcessGeneratedUDPPacket
                0x0801130c      0x1c4 Middlewares\Third_Party\FreeRTOS-Plus-TCP\FreeRTOS_UDP_IP.o
                0x0801130c                vProcessGeneratedUDPPacket
 .text.xProcessReceivedUDPPacket
                0x080114d0       0xde Middlewares\Third_Party\FreeRTOS-Plus-TCP\FreeRTOS_UDP_IP.o
                0x080114d0                xProcessReceivedUDPPacket
 *fill*         0x080115ae        0x2 
 .text.xNetworkBuffersInitialise
                0x080115b0       0xf8 Middlewares\Third_Party\FreeRTOS-Plus-TCP\portable\BufferManagement\BufferAllocation_2.o
                0x080115b0                xNetworkBuffersInitialise
 .text.vReleaseNetworkBuffer
                0x080116a8       0x22 Middlewares\Third_Party\FreeRTOS-Plus-TCP\portable\BufferManagement\BufferAllocation_2.o
                0x080116a8                vReleaseNetworkBuffer
 *fill*         0x080116ca        0x2 
 .text.pxGetNetworkBufferWithDescriptor
                0x080116cc       0xf0 Middlewares\Third_Party\FreeRTOS-Plus-TCP\portable\BufferManagement\BufferAllocation_2.o
                0x080116cc                pxGetNetworkBufferWithDescriptor
 .text.vReleaseNetworkBufferAndDescriptor
                0x080117bc       0x68 Middlewares\Third_Party\FreeRTOS-Plus-TCP\portable\BufferManagement\BufferAllocation_2.o
                0x080117bc                vReleaseNetworkBufferAndDescriptor
 .text.main     0x08011824       0x64 Src\main.o
                0x08011824                main
 .text.SystemClock_Config
                0x08011888       0xf0 Src\main.o
                0x08011888                SystemClock_Config
 .text.MX_GPIO_Init
                0x08011978       0xb0 Src\main.o
 .text.vApplicationIPNetworkEventHook
                0x08011a28       0x4c Src\main.o
                0x08011a28                vApplicationIPNetworkEventHook
 .text.prvServerWorkTask
                0x08011a74      0x164 Src\main.o
 .text.pcApplicationHostnameHook
                0x08011bd8       0x14 Src\main.o
                0x08011bd8                pcApplicationHostnameHook
 .text.xApplicationDNSQueryHook
                0x08011bec       0x48 Src\main.o
                0x08011bec                xApplicationDNSQueryHook
 .text.vApplicationStackOverflowHook
                0x08011c34       0x1e Src\main.o
                0x08011c34                vApplicationStackOverflowHook
 *fill*         0x08011c52        0x2 
 .text.StartDefaultTask
                0x08011c54       0x24 Src\main.o
                0x08011c54                StartDefaultTask
 .text.HAL_TIM_PeriodElapsedCallback
                0x08011c78       0x24 Src\main.o
                0x08011c78                HAL_TIM_PeriodElapsedCallback
 .text._Error_Handler
                0x08011c9c        0xc Src\main.o
                0x08011c9c                _Error_Handler
 .text.HAL_MspInit
                0x08011ca8       0xa4 Src\stm32f4xx_hal_msp.o
                0x08011ca8                HAL_MspInit
 .text.HAL_InitTick
                0x08011d4c       0xb0 Src\stm32f4xx_hal_timebase_TIM.o
                0x08011d4c                HAL_InitTick
 .text.NMI_Handler
                0x08011dfc        0xe Src\stm32f4xx_it.o
                0x08011dfc                NMI_Handler
 .text.HardFault_Handler
                0x08011e0a        0x6 Src\stm32f4xx_it.o
                0x08011e0a                HardFault_Handler
 .text.MemManage_Handler
                0x08011e10        0x6 Src\stm32f4xx_it.o
                0x08011e10                MemManage_Handler
 .text.BusFault_Handler
                0x08011e16        0x6 Src\stm32f4xx_it.o
                0x08011e16                BusFault_Handler
 .text.UsageFault_Handler
                0x08011e1c        0x6 Src\stm32f4xx_it.o
                0x08011e1c                UsageFault_Handler
 .text.DebugMon_Handler
                0x08011e22        0xe Src\stm32f4xx_it.o
                0x08011e22                DebugMon_Handler
 .text.SysTick_Handler
                0x08011e30        0xc Src\stm32f4xx_it.o
                0x08011e30                SysTick_Handler
 .text.TIM1_UP_TIM10_IRQHandler
                0x08011e3c       0x14 Src\stm32f4xx_it.o
                0x08011e3c                TIM1_UP_TIM10_IRQHandler
 .text.SystemInit
                0x08011e50       0x6c Src\system_stm32f4xx.o
                0x08011e50                SystemInit
 .text.Reset_Handler
                0x08011ebc       0x50 startup\startup_stm32f411xe.o
                0x08011ebc                Reset_Handler
 .text.Default_Handler
                0x08011f0c        0x2 startup\startup_stm32f411xe.o
                0x08011f0c                RTC_Alarm_IRQHandler
                0x08011f0c                EXTI2_IRQHandler
                0x08011f0c                SPI4_IRQHandler
                0x08011f0c                TIM1_CC_IRQHandler
                0x08011f0c                DMA2_Stream5_IRQHandler
                0x08011f0c                DMA1_Stream5_IRQHandler
                0x08011f0c                PVD_IRQHandler
                0x08011f0c                SDIO_IRQHandler
                0x08011f0c                TAMP_STAMP_IRQHandler
                0x08011f0c                EXTI3_IRQHandler
                0x08011f0c                I2C3_ER_IRQHandler
                0x08011f0c                EXTI0_IRQHandler
                0x08011f0c                I2C2_EV_IRQHandler
                0x08011f0c                DMA1_Stream2_IRQHandler
                0x08011f0c                FPU_IRQHandler
                0x08011f0c                DMA2_Stream2_IRQHandler
                0x08011f0c                SPI1_IRQHandler
                0x08011f0c                TIM1_BRK_TIM9_IRQHandler
                0x08011f0c                DMA2_Stream3_IRQHandler
                0x08011f0c                USART6_IRQHandler
                0x08011f0c                DMA2_Stream0_IRQHandler
                0x08011f0c                TIM4_IRQHandler
                0x08011f0c                I2C1_EV_IRQHandler
                0x08011f0c                DMA1_Stream6_IRQHandler
                0x08011f0c                DMA1_Stream1_IRQHandler
                0x08011f0c                TIM3_IRQHandler
                0x08011f0c                RCC_IRQHandler
                0x08011f0c                Default_Handler
                0x08011f0c                EXTI15_10_IRQHandler
                0x08011f0c                ADC_IRQHandler
                0x08011f0c                DMA1_Stream7_IRQHandler
                0x08011f0c                SPI5_IRQHandler
                0x08011f0c                TIM5_IRQHandler
                0x08011f0c                DMA2_Stream7_IRQHandler
                0x08011f0c                I2C3_EV_IRQHandler
                0x08011f0c                EXTI9_5_IRQHandler
                0x08011f0c                RTC_WKUP_IRQHandler
                0x08011f0c                SPI2_IRQHandler
                0x08011f0c                DMA1_Stream0_IRQHandler
                0x08011f0c                EXTI4_IRQHandler
                0x08011f0c                WWDG_IRQHandler
                0x08011f0c                TIM2_IRQHandler
                0x08011f0c                OTG_FS_WKUP_IRQHandler
                0x08011f0c                TIM1_TRG_COM_TIM11_IRQHandler
                0x08011f0c                EXTI1_IRQHandler
                0x08011f0c                USART2_IRQHandler
                0x08011f0c                I2C2_ER_IRQHandler
                0x08011f0c                DMA2_Stream1_IRQHandler
                0x08011f0c                FLASH_IRQHandler
                0x08011f0c                DMA2_Stream4_IRQHandler
                0x08011f0c                USART1_IRQHandler
                0x08011f0c                SPI3_IRQHandler
                0x08011f0c                DMA1_Stream4_IRQHandler
                0x08011f0c                I2C1_ER_IRQHandler
                0x08011f0c                DMA2_Stream6_IRQHandler
                0x08011f0c                DMA1_Stream3_IRQHandler
 *fill*         0x08011f0e        0x2 
 .text.__libc_init_array
                0x08011f10       0x48 c:/program files (x86)/atollic/truestudio for stm32 9.0.0/armtools/bin/../lib/gcc/arm-atollic-eabi/6.3.1/../../../../arm-atollic-eabi/lib/armv7e-m/fpu\libc_nano.a(lib_a-init.o)
                0x08011f10                __libc_init_array
 .text.malloc   0x08011f58       0x10 c:/program files (x86)/atollic/truestudio for stm32 9.0.0/armtools/bin/../lib/gcc/arm-atollic-eabi/6.3.1/../../../../arm-atollic-eabi/lib/armv7e-m/fpu\libc_nano.a(lib_a-malloc.o)
                0x08011f58                malloc
 .text.free     0x08011f68       0x10 c:/program files (x86)/atollic/truestudio for stm32 9.0.0/armtools/bin/../lib/gcc/arm-atollic-eabi/6.3.1/../../../../arm-atollic-eabi/lib/armv7e-m/fpu\libc_nano.a(lib_a-malloc.o)
                0x08011f68                free
 .text.memcmp   0x08011f78       0x1e c:/program files (x86)/atollic/truestudio for stm32 9.0.0/armtools/bin/../lib/gcc/arm-atollic-eabi/6.3.1/../../../../arm-atollic-eabi/lib/armv7e-m/fpu\libc_nano.a(lib_a-memcmp.o)
                0x08011f78                memcmp
 .text.memcpy   0x08011f96       0x16 c:/program files (x86)/atollic/truestudio for stm32 9.0.0/armtools/bin/../lib/gcc/arm-atollic-eabi/6.3.1/../../../../arm-atollic-eabi/lib/armv7e-m/fpu\libc_nano.a(lib_a-memcpy-stub.o)
                0x08011f96                memcpy
 .text.memmove  0x08011fac       0x34 c:/program files (x86)/atollic/truestudio for stm32 9.0.0/armtools/bin/../lib/gcc/arm-atollic-eabi/6.3.1/../../../../arm-atollic-eabi/lib/armv7e-m/fpu\libc_nano.a(lib_a-memmove.o)
                0x08011fac                memmove
 .text.memset   0x08011fe0       0x10 c:/program files (x86)/atollic/truestudio for stm32 9.0.0/armtools/bin/../lib/gcc/arm-atollic-eabi/6.3.1/../../../../arm-atollic-eabi/lib/armv7e-m/fpu\libc_nano.a(lib_a-memset.o)
                0x08011fe0                memset
 .text._free_r  0x08011ff0       0x9c c:/program files (x86)/atollic/truestudio for stm32 9.0.0/armtools/bin/../lib/gcc/arm-atollic-eabi/6.3.1/../../../../arm-atollic-eabi/lib/armv7e-m/fpu\libc_nano.a(lib_a-nano-freer.o)
                0x08011ff0                _free_r
 .text._malloc_r
                0x0801208c       0xbc c:/program files (x86)/atollic/truestudio for stm32 9.0.0/armtools/bin/../lib/gcc/arm-atollic-eabi/6.3.1/../../../../arm-atollic-eabi/lib/armv7e-m/fpu\libc_nano.a(lib_a-nano-mallocr.o)
                0x0801208c                _malloc_r
 .text.rand     0x08012148       0x74 c:/program files (x86)/atollic/truestudio for stm32 9.0.0/armtools/bin/../lib/gcc/arm-atollic-eabi/6.3.1/../../../../arm-atollic-eabi/lib/armv7e-m/fpu\libc_nano.a(lib_a-rand.o)
                0x08012148                rand
 .text._sbrk_r  0x080121bc       0x20 c:/program files (x86)/atollic/truestudio for stm32 9.0.0/armtools/bin/../lib/gcc/arm-atollic-eabi/6.3.1/../../../../arm-atollic-eabi/lib/armv7e-m/fpu\libc_nano.a(lib_a-sbrkr.o)
                0x080121bc                _sbrk_r
 .text.strcasecmp
                0x080121dc       0x3c c:/program files (x86)/atollic/truestudio for stm32 9.0.0/armtools/bin/../lib/gcc/arm-atollic-eabi/6.3.1/../../../../arm-atollic-eabi/lib/armv7e-m/fpu\libc_nano.a(lib_a-strcasecmp.o)
                0x080121dc                strcasecmp
 .text.strcpy   0x08012218       0x10 c:/program files (x86)/atollic/truestudio for stm32 9.0.0/armtools/bin/../lib/gcc/arm-atollic-eabi/6.3.1/../../../../arm-atollic-eabi/lib/armv7e-m/fpu\libc_nano.a(lib_a-strcpy.o)
                0x08012218                strcpy
 .text.__locale_ctype_ptr
                0x08012228       0x1c c:/program files (x86)/atollic/truestudio for stm32 9.0.0/armtools/bin/../lib/gcc/arm-atollic-eabi/6.3.1/../../../../arm-atollic-eabi/lib/armv7e-m/fpu\libc_nano.a(lib_a-locale.o)
                0x08012228                __locale_ctype_ptr
 .text.__ascii_mbtowc
                0x08012244       0x24 c:/program files (x86)/atollic/truestudio for stm32 9.0.0/armtools/bin/../lib/gcc/arm-atollic-eabi/6.3.1/../../../../arm-atollic-eabi/lib/armv7e-m/fpu\libc_nano.a(lib_a-mbtowc_r.o)
                0x08012244                __ascii_mbtowc
 .text.__malloc_lock
                0x08012268        0x2 c:/program files (x86)/atollic/truestudio for stm32 9.0.0/armtools/bin/../lib/gcc/arm-atollic-eabi/6.3.1/../../../../arm-atollic-eabi/lib/armv7e-m/fpu\libc_nano.a(lib_a-mlock.o)
                0x08012268                __malloc_lock
 .text.__malloc_unlock
                0x0801226a        0x2 c:/program files (x86)/atollic/truestudio for stm32 9.0.0/armtools/bin/../lib/gcc/arm-atollic-eabi/6.3.1/../../../../arm-atollic-eabi/lib/armv7e-m/fpu\libc_nano.a(lib_a-mlock.o)
                0x0801226a                __malloc_unlock
 .text.__ascii_wctomb
                0x0801226c       0x1a c:/program files (x86)/atollic/truestudio for stm32 9.0.0/armtools/bin/../lib/gcc/arm-atollic-eabi/6.3.1/../../../../arm-atollic-eabi/lib/armv7e-m/fpu\libc_nano.a(lib_a-wctomb_r.o)
                0x0801226c                __ascii_wctomb
 *fill*         0x08012286        0x2 
 .text._sbrk    0x08012288       0x1c c:/program files (x86)/atollic/truestudio for stm32 9.0.0/armtools/bin/../lib/gcc/arm-atollic-eabi/6.3.1/../../../../arm-atollic-eabi/lib/armv7e-m/fpu\libnosys.a(sbrk.o)
                0x08012288                _sbrk
 *(.glue_7)
 .glue_7        0x080122a4        0x0 linker stubs
 *(.glue_7t)
 .glue_7t       0x080122a4        0x0 linker stubs
 *(.eh_frame)
 .eh_frame      0x080122a4        0x0 c:/program files (x86)/atollic/truestudio for stm32 9.0.0/armtools/bin/../lib/gcc/arm-atollic-eabi/6.3.1/armv7e-m/fpu/crtbegin.o
 *(.init)
 .init          0x080122a4        0x4 c:/program files (x86)/atollic/truestudio for stm32 9.0.0/armtools/bin/../lib/gcc/arm-atollic-eabi/6.3.1/armv7e-m/fpu/crti.o
                0x080122a4                _init
 .init          0x080122a8        0x8 c:/program files (x86)/atollic/truestudio for stm32 9.0.0/armtools/bin/../lib/gcc/arm-atollic-eabi/6.3.1/armv7e-m/fpu/crtn.o
 *(.fini)
 .fini          0x080122b0        0x4 c:/program files (x86)/atollic/truestudio for stm32 9.0.0/armtools/bin/../lib/gcc/arm-atollic-eabi/6.3.1/armv7e-m/fpu/crti.o
                0x080122b0                _fini
 .fini          0x080122b4        0x8 c:/program files (x86)/atollic/truestudio for stm32 9.0.0/armtools/bin/../lib/gcc/arm-atollic-eabi/6.3.1/armv7e-m/fpu/crtn.o
                0x080122bc                . = ALIGN (0x4)
                0x080122bc                _etext = .

.vfp11_veneer   0x080122bc        0x0
 .vfp11_veneer  0x080122bc        0x0 linker stubs

.v4_bx          0x080122bc        0x0
 .v4_bx         0x080122bc        0x0 linker stubs

.iplt           0x080122bc        0x0
 .iplt          0x080122bc        0x0 c:/program files (x86)/atollic/truestudio for stm32 9.0.0/armtools/bin/../lib/gcc/arm-atollic-eabi/6.3.1/armv7e-m/fpu/crtbegin.o

.rodata         0x080122bc      0x4b4
                0x080122bc                . = ALIGN (0x4)
 *(.rodata)
 .rodata        0x080122bc       0x3f Middlewares\ST\STM32_USB_Device_Library\App\Src\usbd_conf.o
 *fill*         0x080122fb        0x1 
 .rodata        0x080122fc       0x4b Middlewares\ST\STM32_USB_Device_Library\App\Src\usbd_desc.o
 *fill*         0x08012347        0x1 
 .rodata        0x08012348        0x5 Middlewares\ST\STM32_USB_Device_Library\App\Src\usbd_rndis_if.o
 *fill*         0x0801234d        0x3 
 .rodata        0x08012350        0x5 Middlewares\Third_Party\FreeRTOS\Source\tasks.o
 *fill*         0x08012355        0x3 
 .rodata        0x08012358       0x10 Middlewares\Third_Party\FreeRTOS-Plus-TCP\FreeRTOS_IP.o
 .rodata        0x08012368        0xa Middlewares\Third_Party\FreeRTOS-Plus-TCP\portable\BufferManagement\BufferAllocation_2.o
 *fill*         0x08012372        0x2 
 .rodata        0x08012374      0x1e6 Src\main.o
 *(.rodata*)
 *fill*         0x0801255a        0x2 
 .rodata.OID_GEN_SUPPORTED
                0x0801255c       0x64 Middlewares\ST\STM32_USB_Device_Library\App\Src\usbd_rndis_if.o
                0x0801255c                OID_GEN_SUPPORTED
 .rodata.response
                0x080125c0       0x20 Middlewares\ST\STM32_USB_Device_Library\App\Src\usbd_rndis_if.o
                0x080125c0                response
 .rodata.nome.11031
                0x080125e0        0xf Middlewares\ST\STM32_USB_Device_Library\App\Src\usbd_rndis_if.o
 *fill*         0x080125ef        0x1 
 .rodata.xDefaultPartARPPacketHeader
                0x080125f0       0x26 Middlewares\Third_Party\FreeRTOS-Plus-TCP\FreeRTOS_ARP.o
 *fill*         0x08012616        0x2 
 .rodata.xLLMNR_MacAdress
                0x08012618        0x6 Middlewares\Third_Party\FreeRTOS-Plus-TCP\FreeRTOS_DNS.o
                0x08012618                xLLMNR_MacAdress
 *fill*         0x0801261e        0x2 
 .rodata.xBroadcastMACAddress
                0x08012620        0x6 Middlewares\Third_Party\FreeRTOS-Plus-TCP\FreeRTOS_IP.o
                0x08012620                xBroadcastMACAddress
 *fill*         0x08012626        0x2 
 .rodata.xNetworkDownEvent.8455
                0x08012628        0x8 Middlewares\Third_Party\FreeRTOS-Plus-TCP\FreeRTOS_IP.o
 .rodata.xNetworkDownEvent.8460
                0x08012630        0x8 Middlewares\Third_Party\FreeRTOS-Plus-TCP\FreeRTOS_IP.o
 .rodata.xBufferAllocFixedSize
                0x08012638        0x4 Middlewares\Third_Party\FreeRTOS-Plus-TCP\portable\BufferManagement\BufferAllocation_2.o
                0x08012638                xBufferAllocFixedSize
 .rodata.ucIPAddress
                0x0801263c        0x4 Src\main.o
 .rodata.ucNetMask
                0x08012640        0x4 Src\main.o
 .rodata.ucGatewayAddress
                0x08012644        0x4 Src\main.o
 .rodata.ucDNSServerAddress
                0x08012648        0x4 Src\main.o
 .rodata.AHBPrescTable
                0x0801264c       0x10 Src\system_stm32f4xx.o
                0x0801264c                AHBPrescTable
 .rodata.APBPrescTable
                0x0801265c        0x8 Src\system_stm32f4xx.o
                0x0801265c                APBPrescTable
 .rodata._setlocale_r.str1.1
                0x08012664        0x8 c:/program files (x86)/atollic/truestudio for stm32 9.0.0/armtools/bin/../lib/gcc/arm-atollic-eabi/6.3.1/../../../../arm-atollic-eabi/lib/armv7e-m/fpu\libc_nano.a(lib_a-locale.o)
                                  0x9 (size before relaxing)
 .rodata.str1.1
                0x0801266c        0x2 c:/program files (x86)/atollic/truestudio for stm32 9.0.0/armtools/bin/../lib/gcc/arm-atollic-eabi/6.3.1/../../../../arm-atollic-eabi/lib/armv7e-m/fpu\libc_nano.a(lib_a-locale.o)
 .rodata._ctype_
                0x0801266e      0x101 c:/program files (x86)/atollic/truestudio for stm32 9.0.0/armtools/bin/../lib/gcc/arm-atollic-eabi/6.3.1/../../../../arm-atollic-eabi/lib/armv7e-m/fpu\libc_nano.a(lib_a-ctype_.o)
                0x0801266e                _ctype_
                0x08012770                . = ALIGN (0x4)
 *fill*         0x0801276f        0x1 

.ARM.extab
 *(.ARM.extab* .gnu.linkonce.armextab.*)

.ARM            0x08012770        0x8
                0x08012770                __exidx_start = .
 *(.ARM.exidx*)
 .ARM.exidx     0x08012770        0x8 c:/program files (x86)/atollic/truestudio for stm32 9.0.0/armtools/bin/../lib/gcc/arm-atollic-eabi/6.3.1/armv7e-m/fpu\libgcc.a(_udivmoddi4.o)
                0x08012778                __exidx_end = .

.rel.dyn        0x08012778        0x0
 .rel.iplt      0x08012778        0x0 c:/program files (x86)/atollic/truestudio for stm32 9.0.0/armtools/bin/../lib/gcc/arm-atollic-eabi/6.3.1/armv7e-m/fpu/crtbegin.o

.preinit_array  0x08012778        0x0
                0x08012778                PROVIDE (__preinit_array_start, .)
 *(.preinit_array*)
                0x08012778                PROVIDE (__preinit_array_end, .)

.init_array     0x08012778        0x4
                0x08012778                PROVIDE (__init_array_start, .)
 *(SORT(.init_array.*))
 *(.init_array*)
 .init_array    0x08012778        0x4 c:/program files (x86)/atollic/truestudio for stm32 9.0.0/armtools/bin/../lib/gcc/arm-atollic-eabi/6.3.1/armv7e-m/fpu/crtbegin.o
                0x0801277c                PROVIDE (__init_array_end, .)

.fini_array     0x0801277c        0x4
                [!provide]                PROVIDE (__fini_array_start, .)
 *(SORT(.fini_array.*))
 *(.fini_array*)
 .fini_array    0x0801277c        0x4 c:/program files (x86)/atollic/truestudio for stm32 9.0.0/armtools/bin/../lib/gcc/arm-atollic-eabi/6.3.1/armv7e-m/fpu/crtbegin.o
                [!provide]                PROVIDE (__fini_array_end, .)
                0x08012780                _sidata = LOADADDR (.data)

.data           0x20000000      0x3a0 load address 0x08012780
                0x20000000                . = ALIGN (0x4)
                0x20000000                _sdata = .
 *(.data)
 *(.data*)
 .data.uwTickFreq
                0x20000000        0x1 Drivers\STM32F4xx_HAL_Driver\Src\stm32f4xx_hal.o
                0x20000000                uwTickFreq
 *fill*         0x20000001        0x3 
 .data.FS_Desc  0x20000004       0x1c Middlewares\ST\STM32_USB_Device_Library\App\Src\usbd_desc.o
                0x20000004                FS_Desc
 .data.USBD_FS_DeviceDesc
                0x20000020       0x12 Middlewares\ST\STM32_USB_Device_Library\App\Src\usbd_desc.o
                0x20000020                USBD_FS_DeviceDesc
 *fill*         0x20000032        0x2 
 .data.USBD_LangIDDesc
                0x20000034        0x4 Middlewares\ST\STM32_USB_Device_Library\App\Src\usbd_desc.o
                0x20000034                USBD_LangIDDesc
 .data.USBD_RNDIS_Interface_fops_FS
                0x20000038       0x10 Middlewares\ST\STM32_USB_Device_Library\App\Src\usbd_rndis_if.o
                0x20000038                USBD_RNDIS_Interface_fops_FS
 .data.inEP     0x20000048        0x1 Middlewares\ST\STM32_USB_Device_Library\Class\Composite\Src\usbd_composite.o
 .data.outEP    0x20000049        0x1 Middlewares\ST\STM32_USB_Device_Library\Class\Composite\Src\usbd_composite.o
 *fill*         0x2000004a        0x2 
 .data.USBD_COMPOSITE_DeviceQualifierDesc
                0x2000004c        0xa Middlewares\ST\STM32_USB_Device_Library\Class\Composite\Src\usbd_composite.o
 *fill*         0x20000056        0x2 
 .data.USBD_COMPOSITE
                0x20000058       0x38 Middlewares\ST\STM32_USB_Device_Library\Class\Composite\Src\usbd_composite.o
                0x20000058                USBD_COMPOSITE
 .data.USBD_COMPOSITE_CfgFSDesc
                0x20000090        0x9 Middlewares\ST\STM32_USB_Device_Library\Class\Composite\Src\usbd_composite.o
                0x20000090                USBD_COMPOSITE_CfgFSDesc
 *fill*         0x20000099        0x3 
 .data.USBD_COMPOSITE_IfcAssocDesc
                0x2000009c        0x8 Middlewares\ST\STM32_USB_Device_Library\Class\Composite\Src\usbd_composite.o
                0x2000009c                USBD_COMPOSITE_IfcAssocDesc
 .data.USBD_RNDIS_DeviceQualifierDesc
                0x200000a4        0xa Middlewares\ST\STM32_USB_Device_Library\Class\RNDIS\Src\usbd_rndis.o
 *fill*         0x200000ae        0x2 
 .data.USBD_RNDIS
                0x200000b0       0x38 Middlewares\ST\STM32_USB_Device_Library\Class\RNDIS\Src\usbd_rndis.o
                0x200000b0                USBD_RNDIS
 .data.USBD_RNDIS_CfgHSDesc
                0x200000e8       0x3e Middlewares\ST\STM32_USB_Device_Library\Class\RNDIS\Src\usbd_rndis.o
                0x200000e8                USBD_RNDIS_CfgHSDesc
 *fill*         0x20000126        0x2 
 .data.USBD_RNDIS_CfgFSDesc
                0x20000128       0x3e Middlewares\ST\STM32_USB_Device_Library\Class\RNDIS\Src\usbd_rndis.o
                0x20000128                USBD_RNDIS_CfgFSDesc
 *fill*         0x20000166        0x2 
 .data.USBD_RNDIS_OtherSpeedCfgDesc
                0x20000168       0x3e Middlewares\ST\STM32_USB_Device_Library\Class\RNDIS\Src\usbd_rndis.o
                0x20000168                USBD_RNDIS_OtherSpeedCfgDesc
 *fill*         0x200001a6        0x2 
 .data.uxCriticalNesting
                0x200001a8        0x4 Middlewares\Third_Party\FreeRTOS\Source\portable\GCC\ARM_CM4F\port.o
 .data.xDefaultPartUDPPacketHeader
                0x200001ac       0x18 Middlewares\Third_Party\FreeRTOS-Plus-TCP\FreeRTOS_UDP_IP.o
                0x200001ac                xDefaultPartUDPPacketHeader
 .data.ucMACAddress
                0x200001c4        0x6 Src\main.o
 *fill*         0x200001ca        0x2 
 .data.SystemCoreClock
                0x200001cc        0x4 Src\system_stm32f4xx.o
                0x200001cc                SystemCoreClock
 .data._impure_ptr
                0x200001d0        0x4 c:/program files (x86)/atollic/truestudio for stm32 9.0.0/armtools/bin/../lib/gcc/arm-atollic-eabi/6.3.1/../../../../arm-atollic-eabi/lib/armv7e-m/fpu\libc_nano.a(lib_a-impure.o)
                0x200001d0                _impure_ptr
 .data.impure_data
                0x200001d4       0x60 c:/program files (x86)/atollic/truestudio for stm32 9.0.0/armtools/bin/../lib/gcc/arm-atollic-eabi/6.3.1/../../../../arm-atollic-eabi/lib/armv7e-m/fpu\libc_nano.a(lib_a-impure.o)
 .data.__global_locale
                0x20000234      0x16c c:/program files (x86)/atollic/truestudio for stm32 9.0.0/armtools/bin/../lib/gcc/arm-atollic-eabi/6.3.1/../../../../arm-atollic-eabi/lib/armv7e-m/fpu\libc_nano.a(lib_a-locale.o)
                0x20000234                __global_locale
                0x200003a0                . = ALIGN (0x4)
                0x200003a0                _edata = .

.igot.plt       0x200003a0        0x0 load address 0x08012b20
 .igot.plt      0x200003a0        0x0 c:/program files (x86)/atollic/truestudio for stm32 9.0.0/armtools/bin/../lib/gcc/arm-atollic-eabi/6.3.1/armv7e-m/fpu/crtbegin.o
                0x200003a0                . = ALIGN (0x4)

.bss            0x200003a0    0x1b4c8 load address 0x08012b20
                0x200003a0                _sbss = .
                0x200003a0                __bss_start__ = _sbss
 *(.bss)
 .bss           0x200003a0       0x1c c:/program files (x86)/atollic/truestudio for stm32 9.0.0/armtools/bin/../lib/gcc/arm-atollic-eabi/6.3.1/armv7e-m/fpu/crtbegin.o
 *(.bss*)
 .bss.UserRxBufferFS
                0x200003bc      0x800 Middlewares\ST\STM32_USB_Device_Library\App\Src\usbd_rndis_if.o
 .bss.UserRxBufferFS_Temp
                0x20000bbc       0x40 Middlewares\ST\STM32_USB_Device_Library\App\Src\usbd_rndis_if.o
 *fill*         0x20000bfc        0x4 
 .bss.rndis_oid_gen_xmit_ok
                0x20000c00        0x8 Middlewares\ST\STM32_USB_Device_Library\App\Src\usbd_rndis_if.o
 .bss.rndis_oid_gen_rcv_ok
                0x20000c08        0x8 Middlewares\ST\STM32_USB_Device_Library\App\Src\usbd_rndis_if.o
 .bss.receivedAcumulatorLen
                0x20000c10        0x2 Middlewares\ST\STM32_USB_Device_Library\App\Src\usbd_rndis_if.o
 .bss.UserRxSize
                0x20000c12        0x2 Middlewares\ST\STM32_USB_Device_Library\App\Src\usbd_rndis_if.o
                0x20000c12                UserRxSize
 .bss.rndis_state
                0x20000c14        0x1 Middlewares\ST\STM32_USB_Device_Library\App\Src\usbd_rndis_if.o
 *fill*         0x20000c15        0x3 
 .bss.xEMACTaskHandle
                0x20000c18        0x4 Middlewares\ST\STM32_USB_Device_Library\App\Src\usbd_rndis_if.o
 .bss.rndis_data.11032
                0x20000c1c       0x24 Middlewares\ST\STM32_USB_Device_Library\App\Src\usbd_rndis_if.o
 .bss.usbd_composite_pClass_count
                0x20000c40        0x1 Middlewares\ST\STM32_USB_Device_Library\Class\Composite\Src\usbd_composite.o
                0x20000c40                usbd_composite_pClass_count
 *fill*         0x20000c41        0x3 
 .bss.descriptor
                0x20000c44      0x400 Middlewares\ST\STM32_USB_Device_Library\Class\Composite\Src\usbd_composite.o
 .bss.descriptor_size
                0x20001044        0x2 Middlewares\ST\STM32_USB_Device_Library\Class\Composite\Src\usbd_composite.o
 .bss.itf_num   0x20001046        0x1 Middlewares\ST\STM32_USB_Device_Library\Class\Composite\Src\usbd_composite.o
 .bss.ifalt.9717
                0x20001047        0x1 Middlewares\ST\STM32_USB_Device_Library\Class\RNDIS\Src\usbd_rndis.o
 .bss.cfgidx.9665
                0x20001048        0x1 Middlewares\ST\STM32_USB_Device_Library\Core\Src\usbd_ctlreq.o
 .bss.ucMaxSysCallPriority
                0x20001049        0x1 Middlewares\Third_Party\FreeRTOS\Source\portable\GCC\ARM_CM4F\port.o
 *fill*         0x2000104a        0x2 
 .bss.ulMaxPRIGROUPValue
                0x2000104c        0x4 Middlewares\Third_Party\FreeRTOS\Source\portable\GCC\ARM_CM4F\port.o
 .bss.ucHeap    0x20001050    0x18000 Middlewares\Third_Party\FreeRTOS\Source\portable\MemMang\heap_4.o
 .bss.xStart    0x20019050        0x8 Middlewares\Third_Party\FreeRTOS\Source\portable\MemMang\heap_4.o
 .bss.pxEnd     0x20019058        0x4 Middlewares\Third_Party\FreeRTOS\Source\portable\MemMang\heap_4.o
 .bss.xFreeBytesRemaining
                0x2001905c        0x4 Middlewares\Third_Party\FreeRTOS\Source\portable\MemMang\heap_4.o
 .bss.xMinimumEverFreeBytesRemaining
                0x20019060        0x4 Middlewares\Third_Party\FreeRTOS\Source\portable\MemMang\heap_4.o
 .bss.xBlockAllocatedBit
                0x20019064        0x4 Middlewares\Third_Party\FreeRTOS\Source\portable\MemMang\heap_4.o
 .bss.pxCurrentTCB
                0x20019068        0x4 Middlewares\Third_Party\FreeRTOS\Source\tasks.o
                0x20019068                pxCurrentTCB
 .bss.pxReadyTasksLists
                0x2001906c       0x8c Middlewares\Third_Party\FreeRTOS\Source\tasks.o
 .bss.xDelayedTaskList1
                0x200190f8       0x14 Middlewares\Third_Party\FreeRTOS\Source\tasks.o
 .bss.xDelayedTaskList2
                0x2001910c       0x14 Middlewares\Third_Party\FreeRTOS\Source\tasks.o
 .bss.pxDelayedTaskList
                0x20019120        0x4 Middlewares\Third_Party\FreeRTOS\Source\tasks.o
 .bss.pxOverflowDelayedTaskList
                0x20019124        0x4 Middlewares\Third_Party\FreeRTOS\Source\tasks.o
 .bss.xPendingReadyList
                0x20019128       0x14 Middlewares\Third_Party\FreeRTOS\Source\tasks.o
 .bss.xTasksWaitingTermination
                0x2001913c       0x14 Middlewares\Third_Party\FreeRTOS\Source\tasks.o
 .bss.uxDeletedTasksWaitingCleanUp
                0x20019150        0x4 Middlewares\Third_Party\FreeRTOS\Source\tasks.o
 .bss.xSuspendedTaskList
                0x20019154       0x14 Middlewares\Third_Party\FreeRTOS\Source\tasks.o
 .bss.uxCurrentNumberOfTasks
                0x20019168        0x4 Middlewares\Third_Party\FreeRTOS\Source\tasks.o
 .bss.xTickCount
                0x2001916c        0x4 Middlewares\Third_Party\FreeRTOS\Source\tasks.o
 .bss.uxTopReadyPriority
                0x20019170        0x4 Middlewares\Third_Party\FreeRTOS\Source\tasks.o
 .bss.xSchedulerRunning
                0x20019174        0x4 Middlewares\Third_Party\FreeRTOS\Source\tasks.o
 .bss.uxPendedTicks
                0x20019178        0x4 Middlewares\Third_Party\FreeRTOS\Source\tasks.o
 .bss.xYieldPending
                0x2001917c        0x4 Middlewares\Third_Party\FreeRTOS\Source\tasks.o
 .bss.xNumOfOverflows
                0x20019180        0x4 Middlewares\Third_Party\FreeRTOS\Source\tasks.o
 .bss.uxTaskNumber
                0x20019184        0x4 Middlewares\Third_Party\FreeRTOS\Source\tasks.o
 .bss.xNextTaskUnblockTime
                0x20019188        0x4 Middlewares\Third_Party\FreeRTOS\Source\tasks.o
 .bss.xIdleTaskHandle
                0x2001918c        0x4 Middlewares\Third_Party\FreeRTOS\Source\tasks.o
 .bss.uxSchedulerSuspended
                0x20019190        0x4 Middlewares\Third_Party\FreeRTOS\Source\tasks.o
 .bss.xARPCache
                0x20019194       0x48 Middlewares\Third_Party\FreeRTOS-Plus-TCP\FreeRTOS_ARP.o
 .bss.xLastGratuitousARPTime
                0x200191dc        0x4 Middlewares\Third_Party\FreeRTOS-Plus-TCP\FreeRTOS_ARP.o
 .bss.xDNSCache
                0x200191e0       0x70 Middlewares\Third_Party\FreeRTOS-Plus-TCP\FreeRTOS_DNS.o
 .bss.xFreeEntry.7711
                0x20019250        0x4 Middlewares\Third_Party\FreeRTOS-Plus-TCP\FreeRTOS_DNS.o
 .bss.xNetworkEventQueue
                0x20019254        0x4 Middlewares\Third_Party\FreeRTOS-Plus-TCP\FreeRTOS_IP.o
                0x20019254                xNetworkEventQueue
 .bss.usPacketIdentifier
                0x20019258        0x2 Middlewares\Third_Party\FreeRTOS-Plus-TCP\FreeRTOS_IP.o
                0x20019258                usPacketIdentifier
 *fill*         0x2001925a        0x2 
 .bss.xNetworkAddressing
                0x2001925c       0x14 Middlewares\Third_Party\FreeRTOS-Plus-TCP\FreeRTOS_IP.o
                0x2001925c                xNetworkAddressing
 .bss.xDefaultAddressing
                0x20019270       0x14 Middlewares\Third_Party\FreeRTOS-Plus-TCP\FreeRTOS_IP.o
                0x20019270                xDefaultAddressing
 .bss.xNetworkDownEventPending
                0x20019284        0x4 Middlewares\Third_Party\FreeRTOS-Plus-TCP\FreeRTOS_IP.o
 .bss.xIPTaskHandle
                0x20019288        0x4 Middlewares\Third_Party\FreeRTOS-Plus-TCP\FreeRTOS_IP.o
 .bss.xProcessedTCPMessage
                0x2001928c        0x4 Middlewares\Third_Party\FreeRTOS-Plus-TCP\FreeRTOS_IP.o
 .bss.xNetworkUp
                0x20019290        0x4 Middlewares\Third_Party\FreeRTOS-Plus-TCP\FreeRTOS_IP.o
 .bss.xARPTimer
                0x20019294       0x14 Middlewares\Third_Party\FreeRTOS-Plus-TCP\FreeRTOS_IP.o
 .bss.xTCPTimer
                0x200192a8       0x14 Middlewares\Third_Party\FreeRTOS-Plus-TCP\FreeRTOS_IP.o
 .bss.xIPTaskInitialised
                0x200192bc        0x4 Middlewares\Third_Party\FreeRTOS-Plus-TCP\FreeRTOS_IP.o
 .bss.xCallEventHook.8531
                0x200192c0        0x4 Middlewares\Third_Party\FreeRTOS-Plus-TCP\FreeRTOS_IP.o
 .bss.xLastTime.8660
                0x200192c4        0x4 Middlewares\Third_Party\FreeRTOS-Plus-TCP\FreeRTOS_Sockets.o
 .bss.xTCPSegments
                0x200192c8        0x4 Middlewares\Third_Party\FreeRTOS-Plus-TCP\FreeRTOS_TCP_WIN.o
 .bss.xSegmentList
                0x200192cc       0x14 Middlewares\Third_Party\FreeRTOS-Plus-TCP\FreeRTOS_TCP_WIN.o
 .bss.xTCPWindowLoggingLevel
                0x200192e0        0x4 Middlewares\Third_Party\FreeRTOS-Plus-TCP\FreeRTOS_TCP_WIN.o
                0x200192e0                xTCPWindowLoggingLevel
 .bss.xFreeBuffersList
                0x200192e4       0x14 Middlewares\Third_Party\FreeRTOS-Plus-TCP\portable\BufferManagement\BufferAllocation_2.o
 .bss.uxMinimumFreeNetworkBuffers
                0x200192f8        0x4 Middlewares\Third_Party\FreeRTOS-Plus-TCP\portable\BufferManagement\BufferAllocation_2.o
 .bss.xNetworkBufferDescriptors
                0x200192fc     0x10e0 Middlewares\Third_Party\FreeRTOS-Plus-TCP\portable\BufferManagement\BufferAllocation_2.o
 .bss.xNetworkBufferSemaphore
                0x2001a3dc        0x4 Middlewares\Third_Party\FreeRTOS-Plus-TCP\portable\BufferManagement\BufferAllocation_2.o
 .bss.xServerWorkTaskHandle
                0x2001a3e0        0x4 Src\main.o
 .bss.xTasksAlreadyCreated.10517
                0x2001a3e4        0x4 Src\main.o
 .bss.cRxedData.10530
                0x2001a3e8      0x1f4 Src\main.o
 .bss.__malloc_free_list
                0x2001a5dc        0x4 c:/program files (x86)/atollic/truestudio for stm32 9.0.0/armtools/bin/../lib/gcc/arm-atollic-eabi/6.3.1/../../../../arm-atollic-eabi/lib/armv7e-m/fpu\libc_nano.a(lib_a-nano-mallocr.o)
                0x2001a5dc                __malloc_free_list
 .bss.__malloc_sbrk_start
                0x2001a5e0        0x4 c:/program files (x86)/atollic/truestudio for stm32 9.0.0/armtools/bin/../lib/gcc/arm-atollic-eabi/6.3.1/../../../../arm-atollic-eabi/lib/armv7e-m/fpu\libc_nano.a(lib_a-nano-mallocr.o)
                0x2001a5e0                __malloc_sbrk_start
 .bss.heap_end.5239
                0x2001a5e4        0x4 c:/program files (x86)/atollic/truestudio for stm32 9.0.0/armtools/bin/../lib/gcc/arm-atollic-eabi/6.3.1/../../../../arm-atollic-eabi/lib/armv7e-m/fpu\libnosys.a(sbrk.o)
 *(COMMON)
 COMMON         0x2001a5e8        0x4 Drivers\STM32F4xx_HAL_Driver\Src\stm32f4xx_hal.o
                0x2001a5e8                uwTick
 COMMON         0x2001a5ec      0x224 Middlewares\ST\STM32_USB_Device_Library\App\Src\usb_device.o
                0x2001a5ec                hUsbDeviceFS
 COMMON         0x2001a810      0x3f0 Middlewares\ST\STM32_USB_Device_Library\App\Src\usbd_conf.o
                0x2001a810                hpcd_USB_OTG_FS
 COMMON         0x2001ac00      0x200 Middlewares\ST\STM32_USB_Device_Library\App\Src\usbd_desc.o
                0x2001ac00                USBD_StrDesc
 COMMON         0x2001ae00      0x82c Middlewares\ST\STM32_USB_Device_Library\App\Src\usbd_rndis_if.o
                0x2001ae00                UserTxBufferFS
 COMMON         0x2001b62c      0x190 Middlewares\ST\STM32_USB_Device_Library\Class\Composite\Src\usbd_composite.o
                0x2001b62c                usbd_composite_class_data
 COMMON         0x2001b7bc       0x40 Middlewares\Third_Party\FreeRTOS\Source\queue.o
                0x2001b7bc                xQueueRegistry
 COMMON         0x2001b7fc       0x28 Middlewares\Third_Party\FreeRTOS-Plus-TCP\FreeRTOS_Sockets.o
                0x2001b7fc                xBoundTCPSocketsList
                0x2001b810                xBoundUDPSocketsList
 COMMON         0x2001b824        0x4 Src\main.o
                0x2001b824                defaultTaskHandle
 COMMON         0x2001b828       0x3c Src\stm32f4xx_hal_timebase_TIM.o
                0x2001b828                htim10
 COMMON         0x2001b864        0x4 c:/program files (x86)/atollic/truestudio for stm32 9.0.0/armtools/bin/../lib/gcc/arm-atollic-eabi/6.3.1/../../../../arm-atollic-eabi/lib/armv7e-m/fpu\libc_nano.a(lib_a-reent.o)
                0x2001b864                errno
                0x2001b868                . = ALIGN (0x4)
                0x2001b868                _ebss = .
                0x2001b868                __bss_end__ = _ebss

._user_heap_stack
                0x2001b868      0x600 load address 0x08012b20
                0x2001b868                . = ALIGN (0x4)
                0x2001b868                PROVIDE (end, .)
                [!provide]                PROVIDE (_end, .)
                0x2001ba68                . = (. + _Min_Heap_Size)
 *fill*         0x2001b868      0x200 
                0x2001be68                . = (. + _Min_Stack_Size)
 *fill*         0x2001ba68      0x400 
                0x2001be68                . = ALIGN (0x4)

/DISCARD/
 libc.a(*)
 libm.a(*)
 libgcc.a(*)

.ARM.attributes
                0x00000000       0x30
 *(.ARM.attributes)
 .ARM.attributes
                0x00000000       0x22 c:/program files (x86)/atollic/truestudio for stm32 9.0.0/armtools/bin/../lib/gcc/arm-atollic-eabi/6.3.1/armv7e-m/fpu/crti.o
 .ARM.attributes
                0x00000022       0x34 c:/program files (x86)/atollic/truestudio for stm32 9.0.0/armtools/bin/../lib/gcc/arm-atollic-eabi/6.3.1/armv7e-m/fpu/crtbegin.o
 .ARM.attributes
                0x00000056       0x39 Drivers\STM32F4xx_HAL_Driver\Src\stm32f4xx_hal.o
 .ARM.attributes
                0x0000008f       0x39 Drivers\STM32F4xx_HAL_Driver\Src\stm32f4xx_hal_cortex.o
 .ARM.attributes
                0x000000c8       0x39 Drivers\STM32F4xx_HAL_Driver\Src\stm32f4xx_hal_gpio.o
 .ARM.attributes
                0x00000101       0x39 Drivers\STM32F4xx_HAL_Driver\Src\stm32f4xx_hal_pcd.o
 .ARM.attributes
                0x0000013a       0x39 Drivers\STM32F4xx_HAL_Driver\Src\stm32f4xx_hal_pcd_ex.o
 .ARM.attributes
                0x00000173       0x39 Drivers\STM32F4xx_HAL_Driver\Src\stm32f4xx_hal_rcc.o
 .ARM.attributes
                0x000001ac       0x39 Drivers\STM32F4xx_HAL_Driver\Src\stm32f4xx_hal_tim.o
 .ARM.attributes
                0x000001e5       0x39 Drivers\STM32F4xx_HAL_Driver\Src\stm32f4xx_hal_tim_ex.o
 .ARM.attributes
                0x0000021e       0x39 Drivers\STM32F4xx_HAL_Driver\Src\stm32f4xx_ll_usb.o
 .ARM.attributes
                0x00000257       0x39 Middlewares\ST\STM32_USB_Device_Library\App\Src\usb_device.o
 .ARM.attributes
                0x00000290       0x39 Middlewares\ST\STM32_USB_Device_Library\App\Src\usbd_conf.o
 .ARM.attributes
                0x000002c9       0x39 Middlewares\ST\STM32_USB_Device_Library\App\Src\usbd_desc.o
 .ARM.attributes
                0x00000302       0x39 Middlewares\ST\STM32_USB_Device_Library\App\Src\usbd_rndis_if.o
 .ARM.attributes
                0x0000033b       0x39 Middlewares\ST\STM32_USB_Device_Library\Class\Composite\Src\usbd_composite.o
 .ARM.attributes
                0x00000374       0x39 Middlewares\ST\STM32_USB_Device_Library\Class\RNDIS\Src\usbd_rndis.o
 .ARM.attributes
                0x000003ad       0x39 Middlewares\ST\STM32_USB_Device_Library\Core\Src\usbd_core.o
 .ARM.attributes
                0x000003e6       0x39 Middlewares\ST\STM32_USB_Device_Library\Core\Src\usbd_ctlreq.o
 .ARM.attributes
                0x0000041f       0x39 Middlewares\ST\STM32_USB_Device_Library\Core\Src\usbd_ioreq.o
 .ARM.attributes
                0x00000458       0x39 Middlewares\Third_Party\FreeRTOS\Source\CMSIS_RTOS\cmsis_os.o
 .ARM.attributes
                0x00000491       0x39 Middlewares\Third_Party\FreeRTOS\Source\event_groups.o
 .ARM.attributes
                0x000004ca       0x39 Middlewares\Third_Party\FreeRTOS\Source\list.o
 .ARM.attributes
                0x00000503       0x39 Middlewares\Third_Party\FreeRTOS\Source\portable\GCC\ARM_CM4F\port.o
 .ARM.attributes
                0x0000053c       0x39 Middlewares\Third_Party\FreeRTOS\Source\portable\MemMang\heap_4.o
 .ARM.attributes
                0x00000575       0x39 Middlewares\Third_Party\FreeRTOS\Source\queue.o
 .ARM.attributes
                0x000005ae       0x39 Middlewares\Third_Party\FreeRTOS\Source\tasks.o
 .ARM.attributes
                0x000005e7       0x39 Middlewares\Third_Party\FreeRTOS-Plus-TCP\FreeRTOS_ARP.o
 .ARM.attributes
                0x00000620       0x39 Middlewares\Third_Party\FreeRTOS-Plus-TCP\FreeRTOS_DNS.o
 .ARM.attributes
                0x00000659       0x39 Middlewares\Third_Party\FreeRTOS-Plus-TCP\FreeRTOS_IP.o
 .ARM.attributes
                0x00000692       0x39 Middlewares\Third_Party\FreeRTOS-Plus-TCP\FreeRTOS_Sockets.o
 .ARM.attributes
                0x000006cb       0x39 Middlewares\Third_Party\FreeRTOS-Plus-TCP\FreeRTOS_Stream_Buffer.o
 .ARM.attributes
                0x00000704       0x39 Middlewares\Third_Party\FreeRTOS-Plus-TCP\FreeRTOS_TCP_IP.o
 .ARM.attributes
                0x0000073d       0x39 Middlewares\Third_Party\FreeRTOS-Plus-TCP\FreeRTOS_TCP_WIN.o
 .ARM.attributes
                0x00000776       0x39 Middlewares\Third_Party\FreeRTOS-Plus-TCP\FreeRTOS_UDP_IP.o
 .ARM.attributes
                0x000007af       0x39 Middlewares\Third_Party\FreeRTOS-Plus-TCP\portable\BufferManagement\BufferAllocation_2.o
 .ARM.attributes
                0x000007e8       0x39 Src\main.o
 .ARM.attributes
                0x00000821       0x39 Src\stm32f4xx_hal_msp.o
 .ARM.attributes
                0x0000085a       0x39 Src\stm32f4xx_hal_timebase_TIM.o
 .ARM.attributes
                0x00000893       0x39 Src\stm32f4xx_it.o
 .ARM.attributes
                0x000008cc       0x39 Src\system_stm32f4xx.o
 .ARM.attributes
                0x00000905       0x21 startup\startup_stm32f411xe.o
 .ARM.attributes
                0x00000926       0x34 c:/program files (x86)/atollic/truestudio for stm32 9.0.0/armtools/bin/../lib/gcc/arm-atollic-eabi/6.3.1/../../../../arm-atollic-eabi/lib/armv7e-m/fpu\libc_nano.a(lib_a-init.o)
 .ARM.attributes
                0x0000095a       0x34 c:/program files (x86)/atollic/truestudio for stm32 9.0.0/armtools/bin/../lib/gcc/arm-atollic-eabi/6.3.1/../../../../arm-atollic-eabi/lib/armv7e-m/fpu\libc_nano.a(lib_a-malloc.o)
 .ARM.attributes
                0x0000098e       0x34 c:/program files (x86)/atollic/truestudio for stm32 9.0.0/armtools/bin/../lib/gcc/arm-atollic-eabi/6.3.1/../../../../arm-atollic-eabi/lib/armv7e-m/fpu\libc_nano.a(lib_a-memcmp.o)
 .ARM.attributes
                0x000009c2       0x34 c:/program files (x86)/atollic/truestudio for stm32 9.0.0/armtools/bin/../lib/gcc/arm-atollic-eabi/6.3.1/../../../../arm-atollic-eabi/lib/armv7e-m/fpu\libc_nano.a(lib_a-memcpy-stub.o)
 .ARM.attributes
                0x000009f6       0x34 c:/program files (x86)/atollic/truestudio for stm32 9.0.0/armtools/bin/../lib/gcc/arm-atollic-eabi/6.3.1/../../../../arm-atollic-eabi/lib/armv7e-m/fpu\libc_nano.a(lib_a-memmove.o)
 .ARM.attributes
                0x00000a2a       0x34 c:/program files (x86)/atollic/truestudio for stm32 9.0.0/armtools/bin/../lib/gcc/arm-atollic-eabi/6.3.1/../../../../arm-atollic-eabi/lib/armv7e-m/fpu\libc_nano.a(lib_a-memset.o)
 .ARM.attributes
                0x00000a5e       0x34 c:/program files (x86)/atollic/truestudio for stm32 9.0.0/armtools/bin/../lib/gcc/arm-atollic-eabi/6.3.1/../../../../arm-atollic-eabi/lib/armv7e-m/fpu\libc_nano.a(lib_a-nano-freer.o)
 .ARM.attributes
                0x00000a92       0x34 c:/program files (x86)/atollic/truestudio for stm32 9.0.0/armtools/bin/../lib/gcc/arm-atollic-eabi/6.3.1/../../../../arm-atollic-eabi/lib/armv7e-m/fpu\libc_nano.a(lib_a-nano-mallocr.o)
 .ARM.attributes
                0x00000ac6       0x34 c:/program files (x86)/atollic/truestudio for stm32 9.0.0/armtools/bin/../lib/gcc/arm-atollic-eabi/6.3.1/../../../../arm-atollic-eabi/lib/armv7e-m/fpu\libc_nano.a(lib_a-rand.o)
 .ARM.attributes
                0x00000afa       0x34 c:/program files (x86)/atollic/truestudio for stm32 9.0.0/armtools/bin/../lib/gcc/arm-atollic-eabi/6.3.1/../../../../arm-atollic-eabi/lib/armv7e-m/fpu\libc_nano.a(lib_a-sbrkr.o)
 .ARM.attributes
                0x00000b2e       0x34 c:/program files (x86)/atollic/truestudio for stm32 9.0.0/armtools/bin/../lib/gcc/arm-atollic-eabi/6.3.1/../../../../arm-atollic-eabi/lib/armv7e-m/fpu\libc_nano.a(lib_a-strcasecmp.o)
 .ARM.attributes
                0x00000b62       0x20 c:/program files (x86)/atollic/truestudio for stm32 9.0.0/armtools/bin/../lib/gcc/arm-atollic-eabi/6.3.1/../../../../arm-atollic-eabi/lib/armv7e-m/fpu\libc_nano.a(lib_a-strcmp.o)
 .ARM.attributes
                0x00000b82       0x34 c:/program files (x86)/atollic/truestudio for stm32 9.0.0/armtools/bin/../lib/gcc/arm-atollic-eabi/6.3.1/../../../../arm-atollic-eabi/lib/armv7e-m/fpu\libc_nano.a(lib_a-strcpy.o)
 .ARM.attributes
                0x00000bb6       0x1b c:/program files (x86)/atollic/truestudio for stm32 9.0.0/armtools/bin/../lib/gcc/arm-atollic-eabi/6.3.1/../../../../arm-atollic-eabi/lib/armv7e-m/fpu\libc_nano.a(lib_a-strlen.o)
 .ARM.attributes
                0x00000bd1       0x34 c:/program files (x86)/atollic/truestudio for stm32 9.0.0/armtools/bin/../lib/gcc/arm-atollic-eabi/6.3.1/../../../../arm-atollic-eabi/lib/armv7e-m/fpu\libc_nano.a(lib_a-impure.o)
 .ARM.attributes
                0x00000c05       0x34 c:/program files (x86)/atollic/truestudio for stm32 9.0.0/armtools/bin/../lib/gcc/arm-atollic-eabi/6.3.1/../../../../arm-atollic-eabi/lib/armv7e-m/fpu\libc_nano.a(lib_a-locale.o)
 .ARM.attributes
                0x00000c39       0x34 c:/program files (x86)/atollic/truestudio for stm32 9.0.0/armtools/bin/../lib/gcc/arm-atollic-eabi/6.3.1/../../../../arm-atollic-eabi/lib/armv7e-m/fpu\libc_nano.a(lib_a-mbtowc_r.o)
 .ARM.attributes
                0x00000c6d       0x34 c:/program files (x86)/atollic/truestudio for stm32 9.0.0/armtools/bin/../lib/gcc/arm-atollic-eabi/6.3.1/../../../../arm-atollic-eabi/lib/armv7e-m/fpu\libc_nano.a(lib_a-mlock.o)
 .ARM.attributes
                0x00000ca1       0x34 c:/program files (x86)/atollic/truestudio for stm32 9.0.0/armtools/bin/../lib/gcc/arm-atollic-eabi/6.3.1/../../../../arm-atollic-eabi/lib/armv7e-m/fpu\libc_nano.a(lib_a-reent.o)
 .ARM.attributes
                0x00000cd5       0x34 c:/program files (x86)/atollic/truestudio for stm32 9.0.0/armtools/bin/../lib/gcc/arm-atollic-eabi/6.3.1/../../../../arm-atollic-eabi/lib/armv7e-m/fpu\libc_nano.a(lib_a-wctomb_r.o)
 .ARM.attributes
                0x00000d09       0x34 c:/program files (x86)/atollic/truestudio for stm32 9.0.0/armtools/bin/../lib/gcc/arm-atollic-eabi/6.3.1/../../../../arm-atollic-eabi/lib/armv7e-m/fpu\libc_nano.a(lib_a-ctype_.o)
 .ARM.attributes
                0x00000d3d       0x22 c:/program files (x86)/atollic/truestudio for stm32 9.0.0/armtools/bin/../lib/gcc/arm-atollic-eabi/6.3.1/armv7e-m/fpu\libgcc.a(_aeabi_uldivmod.o)
 .ARM.attributes
                0x00000d5f       0x34 c:/program files (x86)/atollic/truestudio for stm32 9.0.0/armtools/bin/../lib/gcc/arm-atollic-eabi/6.3.1/armv7e-m/fpu\libgcc.a(_udivmoddi4.o)
 .ARM.attributes
                0x00000d93       0x22 c:/program files (x86)/atollic/truestudio for stm32 9.0.0/armtools/bin/../lib/gcc/arm-atollic-eabi/6.3.1/armv7e-m/fpu\libgcc.a(_dvmd_tls.o)
 .ARM.attributes
                0x00000db5       0x34 c:/program files (x86)/atollic/truestudio for stm32 9.0.0/armtools/bin/../lib/gcc/arm-atollic-eabi/6.3.1/../../../../arm-atollic-eabi/lib/armv7e-m/fpu\libnosys.a(sbrk.o)
 .ARM.attributes
                0x00000de9       0x22 c:/program files (x86)/atollic/truestudio for stm32 9.0.0/armtools/bin/../lib/gcc/arm-atollic-eabi/6.3.1/armv7e-m/fpu/crtn.o
OUTPUT(ADHOC03.elf elf32-littlearm)

.debug_info     0x00000000    0x34aa7
 .debug_info    0x00000000     0x10b2 Drivers\STM32F4xx_HAL_Driver\Src\stm32f4xx_hal.o
 .debug_info    0x000010b2     0x1552 Drivers\STM32F4xx_HAL_Driver\Src\stm32f4xx_hal_cortex.o
 .debug_info    0x00002604      0xf9e Drivers\STM32F4xx_HAL_Driver\Src\stm32f4xx_hal_gpio.o
 .debug_info    0x000035a2     0x1725 Drivers\STM32F4xx_HAL_Driver\Src\stm32f4xx_hal_pcd.o
 .debug_info    0x00004cc7      0xdc2 Drivers\STM32F4xx_HAL_Driver\Src\stm32f4xx_hal_pcd_ex.o
 .debug_info    0x00005a89     0x10e0 Drivers\STM32F4xx_HAL_Driver\Src\stm32f4xx_hal_rcc.o
 .debug_info    0x00006b69     0x29f0 Drivers\STM32F4xx_HAL_Driver\Src\stm32f4xx_hal_tim.o
 .debug_info    0x00009559     0x17ca Drivers\STM32F4xx_HAL_Driver\Src\stm32f4xx_hal_tim_ex.o
 .debug_info    0x0000ad23     0x1c82 Drivers\STM32F4xx_HAL_Driver\Src\stm32f4xx_ll_usb.o
 .debug_info    0x0000c9a5      0xe06 Middlewares\ST\STM32_USB_Device_Library\App\Src\usb_device.o
 .debug_info    0x0000d7ab     0x1e51 Middlewares\ST\STM32_USB_Device_Library\App\Src\usbd_conf.o
 .debug_info    0x0000f5fc      0xc06 Middlewares\ST\STM32_USB_Device_Library\App\Src\usbd_desc.o
 .debug_info    0x00010202     0x1758 Middlewares\ST\STM32_USB_Device_Library\App\Src\usbd_rndis_if.o
 .debug_info    0x0001195a     0x157c Middlewares\ST\STM32_USB_Device_Library\Class\Composite\Src\usbd_composite.o
 .debug_info    0x00012ed6     0x130f Middlewares\ST\STM32_USB_Device_Library\Class\RNDIS\Src\usbd_rndis.o
 .debug_info    0x000141e5     0x116a Middlewares\ST\STM32_USB_Device_Library\Core\Src\usbd_core.o
 .debug_info    0x0001534f     0x10cb Middlewares\ST\STM32_USB_Device_Library\Core\Src\usbd_ctlreq.o
 .debug_info    0x0001641a      0xecb Middlewares\ST\STM32_USB_Device_Library\Core\Src\usbd_ioreq.o
 .debug_info    0x000172e5     0x1af1 Middlewares\Third_Party\FreeRTOS\Source\CMSIS_RTOS\cmsis_os.o
 .debug_info    0x00018dd6     0x1094 Middlewares\Third_Party\FreeRTOS\Source\event_groups.o
 .debug_info    0x00019e6a      0xac3 Middlewares\Third_Party\FreeRTOS\Source\list.o
 .debug_info    0x0001a92d      0x50b Middlewares\Third_Party\FreeRTOS\Source\portable\GCC\ARM_CM4F\port.o
 .debug_info    0x0001ae38      0xbef Middlewares\Third_Party\FreeRTOS\Source\portable\MemMang\heap_4.o
 .debug_info    0x0001ba27     0x1a3d Middlewares\Third_Party\FreeRTOS\Source\queue.o
 .debug_info    0x0001d464     0x20ec Middlewares\Third_Party\FreeRTOS\Source\tasks.o
 .debug_info    0x0001f550     0x1071 Middlewares\Third_Party\FreeRTOS-Plus-TCP\FreeRTOS_ARP.o
 .debug_info    0x000205c1     0x15c7 Middlewares\Third_Party\FreeRTOS-Plus-TCP\FreeRTOS_DNS.o
 .debug_info    0x00021b88     0x27c1 Middlewares\Third_Party\FreeRTOS-Plus-TCP\FreeRTOS_IP.o
 .debug_info    0x00024349     0x31a1 Middlewares\Third_Party\FreeRTOS-Plus-TCP\FreeRTOS_Sockets.o
 .debug_info    0x000274ea      0xe95 Middlewares\Third_Party\FreeRTOS-Plus-TCP\FreeRTOS_Stream_Buffer.o
 .debug_info    0x0002837f     0x2a3b Middlewares\Third_Party\FreeRTOS-Plus-TCP\FreeRTOS_TCP_IP.o
 .debug_info    0x0002adba     0x19e9 Middlewares\Third_Party\FreeRTOS-Plus-TCP\FreeRTOS_TCP_WIN.o
 .debug_info    0x0002c7a3     0x1733 Middlewares\Third_Party\FreeRTOS-Plus-TCP\FreeRTOS_UDP_IP.o
 .debug_info    0x0002ded6      0xe39 Middlewares\Third_Party\FreeRTOS-Plus-TCP\portable\BufferManagement\BufferAllocation_2.o
 .debug_info    0x0002ed0f     0x1e62 Src\main.o
 .debug_info    0x00030b71      0xce2 Src\stm32f4xx_hal_msp.o
 .debug_info    0x00031853     0x127f Src\stm32f4xx_hal_timebase_TIM.o
 .debug_info    0x00032ad2     0x1221 Src\stm32f4xx_it.o
 .debug_info    0x00033cf3      0xd41 Src\system_stm32f4xx.o
 .debug_info    0x00034a34       0x73 startup\startup_stm32f411xe.o

.debug_abbrev   0x00000000     0x64ff
 .debug_abbrev  0x00000000      0x280 Drivers\STM32F4xx_HAL_Driver\Src\stm32f4xx_hal.o
 .debug_abbrev  0x00000280      0x371 Drivers\STM32F4xx_HAL_Driver\Src\stm32f4xx_hal_cortex.o
 .debug_abbrev  0x000005f1      0x24c Drivers\STM32F4xx_HAL_Driver\Src\stm32f4xx_hal_gpio.o
 .debug_abbrev  0x0000083d      0x2de Drivers\STM32F4xx_HAL_Driver\Src\stm32f4xx_hal_pcd.o
 .debug_abbrev  0x00000b1b      0x204 Drivers\STM32F4xx_HAL_Driver\Src\stm32f4xx_hal_pcd_ex.o
 .debug_abbrev  0x00000d1f      0x2c8 Drivers\STM32F4xx_HAL_Driver\Src\stm32f4xx_hal_rcc.o
 .debug_abbrev  0x00000fe7      0x2ab Drivers\STM32F4xx_HAL_Driver\Src\stm32f4xx_hal_tim.o
 .debug_abbrev  0x00001292      0x288 Drivers\STM32F4xx_HAL_Driver\Src\stm32f4xx_hal_tim_ex.o
 .debug_abbrev  0x0000151a      0x2c8 Drivers\STM32F4xx_HAL_Driver\Src\stm32f4xx_ll_usb.o
 .debug_abbrev  0x000017e2      0x1a6 Middlewares\ST\STM32_USB_Device_Library\App\Src\usb_device.o
 .debug_abbrev  0x00001988      0x2a9 Middlewares\ST\STM32_USB_Device_Library\App\Src\usbd_conf.o
 .debug_abbrev  0x00001c31      0x22b Middlewares\ST\STM32_USB_Device_Library\App\Src\usbd_desc.o
 .debug_abbrev  0x00001e5c      0x2eb Middlewares\ST\STM32_USB_Device_Library\App\Src\usbd_rndis_if.o
 .debug_abbrev  0x00002147      0x277 Middlewares\ST\STM32_USB_Device_Library\Class\Composite\Src\usbd_composite.o
 .debug_abbrev  0x000023be      0x28c Middlewares\ST\STM32_USB_Device_Library\Class\RNDIS\Src\usbd_rndis.o
 .debug_abbrev  0x0000264a      0x25c Middlewares\ST\STM32_USB_Device_Library\Core\Src\usbd_core.o
 .debug_abbrev  0x000028a6      0x28c Middlewares\ST\STM32_USB_Device_Library\Core\Src\usbd_ctlreq.o
 .debug_abbrev  0x00002b32      0x1cc Middlewares\ST\STM32_USB_Device_Library\Core\Src\usbd_ioreq.o
 .debug_abbrev  0x00002cfe      0x383 Middlewares\Third_Party\FreeRTOS\Source\CMSIS_RTOS\cmsis_os.o
 .debug_abbrev  0x00003081      0x2d0 Middlewares\Third_Party\FreeRTOS\Source\event_groups.o
 .debug_abbrev  0x00003351      0x1c5 Middlewares\Third_Party\FreeRTOS\Source\list.o
 .debug_abbrev  0x00003516      0x1d5 Middlewares\Third_Party\FreeRTOS\Source\portable\GCC\ARM_CM4F\port.o
 .debug_abbrev  0x000036eb      0x29b Middlewares\Third_Party\FreeRTOS\Source\portable\MemMang\heap_4.o
 .debug_abbrev  0x00003986      0x2d4 Middlewares\Third_Party\FreeRTOS\Source\queue.o
 .debug_abbrev  0x00003c5a      0x351 Middlewares\Third_Party\FreeRTOS\Source\tasks.o
 .debug_abbrev  0x00003fab      0x28e Middlewares\Third_Party\FreeRTOS-Plus-TCP\FreeRTOS_ARP.o
 .debug_abbrev  0x00004239      0x22f Middlewares\Third_Party\FreeRTOS-Plus-TCP\FreeRTOS_DNS.o
 .debug_abbrev  0x00004468      0x3db Middlewares\Third_Party\FreeRTOS-Plus-TCP\FreeRTOS_IP.o
 .debug_abbrev  0x00004843      0x43e Middlewares\Third_Party\FreeRTOS-Plus-TCP\FreeRTOS_Sockets.o
 .debug_abbrev  0x00004c81      0x211 Middlewares\Third_Party\FreeRTOS-Plus-TCP\FreeRTOS_Stream_Buffer.o
 .debug_abbrev  0x00004e92      0x3b6 Middlewares\Third_Party\FreeRTOS-Plus-TCP\FreeRTOS_TCP_IP.o
 .debug_abbrev  0x00005248      0x302 Middlewares\Third_Party\FreeRTOS-Plus-TCP\FreeRTOS_TCP_WIN.o
 .debug_abbrev  0x0000554a      0x27c Middlewares\Third_Party\FreeRTOS-Plus-TCP\FreeRTOS_UDP_IP.o
 .debug_abbrev  0x000057c6      0x290 Middlewares\Third_Party\FreeRTOS-Plus-TCP\portable\BufferManagement\BufferAllocation_2.o
 .debug_abbrev  0x00005a56      0x310 Src\main.o
 .debug_abbrev  0x00005d66      0x1c9 Src\stm32f4xx_hal_msp.o
 .debug_abbrev  0x00005f2f      0x207 Src\stm32f4xx_hal_timebase_TIM.o
 .debug_abbrev  0x00006136      0x1ed Src\stm32f4xx_it.o
 .debug_abbrev  0x00006323      0x1ca Src\system_stm32f4xx.o
 .debug_abbrev  0x000064ed       0x12 startup\startup_stm32f411xe.o

.debug_aranges  0x00000000     0x1dc0
 .debug_aranges
                0x00000000       0xe0 Drivers\STM32F4xx_HAL_Driver\Src\stm32f4xx_hal.o
 .debug_aranges
                0x000000e0      0x118 Drivers\STM32F4xx_HAL_Driver\Src\stm32f4xx_hal_cortex.o
 .debug_aranges
                0x000001f8       0x58 Drivers\STM32F4xx_HAL_Driver\Src\stm32f4xx_hal_gpio.o
 .debug_aranges
                0x00000250      0x120 Drivers\STM32F4xx_HAL_Driver\Src\stm32f4xx_hal_pcd.o
 .debug_aranges
                0x00000370       0x28 Drivers\STM32F4xx_HAL_Driver\Src\stm32f4xx_hal_pcd_ex.o
 .debug_aranges
                0x00000398       0x88 Drivers\STM32F4xx_HAL_Driver\Src\stm32f4xx_hal_rcc.o
 .debug_aranges
                0x00000420      0x368 Drivers\STM32F4xx_HAL_Driver\Src\stm32f4xx_hal_tim.o
 .debug_aranges
                0x00000788      0x140 Drivers\STM32F4xx_HAL_Driver\Src\stm32f4xx_hal_tim_ex.o
 .debug_aranges
                0x000008c8      0x180 Drivers\STM32F4xx_HAL_Driver\Src\stm32f4xx_ll_usb.o
 .debug_aranges
                0x00000a48       0x20 Middlewares\ST\STM32_USB_Device_Library\App\Src\usb_device.o
 .debug_aranges
                0x00000a68      0x100 Middlewares\ST\STM32_USB_Device_Library\App\Src\usbd_conf.o
 .debug_aranges
                0x00000b68       0x50 Middlewares\ST\STM32_USB_Device_Library\App\Src\usbd_desc.o
 .debug_aranges
                0x00000bb8       0x68 Middlewares\ST\STM32_USB_Device_Library\App\Src\usbd_rndis_if.o
 .debug_aranges
                0x00000c20       0xa0 Middlewares\ST\STM32_USB_Device_Library\Class\Composite\Src\usbd_composite.o
 .debug_aranges
                0x00000cc0       0x98 Middlewares\ST\STM32_USB_Device_Library\Class\RNDIS\Src\usbd_rndis.o
 .debug_aranges
                0x00000d58       0xb8 Middlewares\ST\STM32_USB_Device_Library\Core\Src\usbd_core.o
 .debug_aranges
                0x00000e10       0x88 Middlewares\ST\STM32_USB_Device_Library\Core\Src\usbd_ctlreq.o
 .debug_aranges
                0x00000e98       0x50 Middlewares\ST\STM32_USB_Device_Library\Core\Src\usbd_ioreq.o
 .debug_aranges
                0x00000ee8      0x1d8 Middlewares\Third_Party\FreeRTOS\Source\CMSIS_RTOS\cmsis_os.o
 .debug_aranges
                0x000010c0       0x68 Middlewares\Third_Party\FreeRTOS\Source\event_groups.o
 .debug_aranges
                0x00001128       0x40 Middlewares\Third_Party\FreeRTOS\Source\list.o
 .debug_aranges
                0x00001168       0x80 Middlewares\Third_Party\FreeRTOS\Source\portable\GCC\ARM_CM4F\port.o
 .debug_aranges
                0x000011e8       0x50 Middlewares\Third_Party\FreeRTOS\Source\portable\MemMang\heap_4.o
 .debug_aranges
                0x00001238       0xe8 Middlewares\Third_Party\FreeRTOS\Source\queue.o
 .debug_aranges
                0x00001320      0x190 Middlewares\Third_Party\FreeRTOS\Source\tasks.o
 .debug_aranges
                0x000014b0       0x60 Middlewares\Third_Party\FreeRTOS-Plus-TCP\FreeRTOS_ARP.o
 .debug_aranges
                0x00001510       0x78 Middlewares\Third_Party\FreeRTOS-Plus-TCP\FreeRTOS_DNS.o
 .debug_aranges
                0x00001588      0x160 Middlewares\Third_Party\FreeRTOS-Plus-TCP\FreeRTOS_IP.o
 .debug_aranges
                0x000016e8      0x208 Middlewares\Third_Party\FreeRTOS-Plus-TCP\FreeRTOS_Sockets.o
 .debug_aranges
                0x000018f0       0x58 Middlewares\Third_Party\FreeRTOS-Plus-TCP\FreeRTOS_Stream_Buffer.o
 .debug_aranges
                0x00001948      0x168 Middlewares\Third_Party\FreeRTOS-Plus-TCP\FreeRTOS_TCP_IP.o
 .debug_aranges
                0x00001ab0      0x118 Middlewares\Third_Party\FreeRTOS-Plus-TCP\FreeRTOS_TCP_WIN.o
 .debug_aranges
                0x00001bc8       0x28 Middlewares\Third_Party\FreeRTOS-Plus-TCP\FreeRTOS_UDP_IP.o
 .debug_aranges
                0x00001bf0       0x58 Middlewares\Third_Party\FreeRTOS-Plus-TCP\portable\BufferManagement\BufferAllocation_2.o
 .debug_aranges
                0x00001c48       0x80 Src\main.o
 .debug_aranges
                0x00001cc8       0x20 Src\stm32f4xx_hal_msp.o
 .debug_aranges
                0x00001ce8       0x30 Src\stm32f4xx_hal_timebase_TIM.o
 .debug_aranges
                0x00001d18       0x58 Src\stm32f4xx_it.o
 .debug_aranges
                0x00001d70       0x28 Src\system_stm32f4xx.o
 .debug_aranges
                0x00001d98       0x28 startup\startup_stm32f411xe.o

.debug_ranges   0x00000000     0x1ba8
 .debug_ranges  0x00000000       0xd0 Drivers\STM32F4xx_HAL_Driver\Src\stm32f4xx_hal.o
 .debug_ranges  0x000000d0      0x108 Drivers\STM32F4xx_HAL_Driver\Src\stm32f4xx_hal_cortex.o
 .debug_ranges  0x000001d8       0x48 Drivers\STM32F4xx_HAL_Driver\Src\stm32f4xx_hal_gpio.o
 .debug_ranges  0x00000220      0x110 Drivers\STM32F4xx_HAL_Driver\Src\stm32f4xx_hal_pcd.o
 .debug_ranges  0x00000330       0x18 Drivers\STM32F4xx_HAL_Driver\Src\stm32f4xx_hal_pcd_ex.o
 .debug_ranges  0x00000348       0x78 Drivers\STM32F4xx_HAL_Driver\Src\stm32f4xx_hal_rcc.o
 .debug_ranges  0x000003c0      0x358 Drivers\STM32F4xx_HAL_Driver\Src\stm32f4xx_hal_tim.o
 .debug_ranges  0x00000718      0x130 Drivers\STM32F4xx_HAL_Driver\Src\stm32f4xx_hal_tim_ex.o
 .debug_ranges  0x00000848      0x170 Drivers\STM32F4xx_HAL_Driver\Src\stm32f4xx_ll_usb.o
 .debug_ranges  0x000009b8       0x10 Middlewares\ST\STM32_USB_Device_Library\App\Src\usb_device.o
 .debug_ranges  0x000009c8       0xf0 Middlewares\ST\STM32_USB_Device_Library\App\Src\usbd_conf.o
 .debug_ranges  0x00000ab8       0x40 Middlewares\ST\STM32_USB_Device_Library\App\Src\usbd_desc.o
 .debug_ranges  0x00000af8       0x58 Middlewares\ST\STM32_USB_Device_Library\App\Src\usbd_rndis_if.o
 .debug_ranges  0x00000b50       0x90 Middlewares\ST\STM32_USB_Device_Library\Class\Composite\Src\usbd_composite.o
 .debug_ranges  0x00000be0       0x88 Middlewares\ST\STM32_USB_Device_Library\Class\RNDIS\Src\usbd_rndis.o
 .debug_ranges  0x00000c68       0xa8 Middlewares\ST\STM32_USB_Device_Library\Core\Src\usbd_core.o
 .debug_ranges  0x00000d10       0x78 Middlewares\ST\STM32_USB_Device_Library\Core\Src\usbd_ctlreq.o
 .debug_ranges  0x00000d88       0x40 Middlewares\ST\STM32_USB_Device_Library\Core\Src\usbd_ioreq.o
 .debug_ranges  0x00000dc8      0x1c8 Middlewares\Third_Party\FreeRTOS\Source\CMSIS_RTOS\cmsis_os.o
 .debug_ranges  0x00000f90       0x58 Middlewares\Third_Party\FreeRTOS\Source\event_groups.o
 .debug_ranges  0x00000fe8       0x30 Middlewares\Third_Party\FreeRTOS\Source\list.o
 .debug_ranges  0x00001018       0x70 Middlewares\Third_Party\FreeRTOS\Source\portable\GCC\ARM_CM4F\port.o
 .debug_ranges  0x00001088       0x40 Middlewares\Third_Party\FreeRTOS\Source\portable\MemMang\heap_4.o
 .debug_ranges  0x000010c8       0xd8 Middlewares\Third_Party\FreeRTOS\Source\queue.o
 .debug_ranges  0x000011a0      0x180 Middlewares\Third_Party\FreeRTOS\Source\tasks.o
 .debug_ranges  0x00001320       0x50 Middlewares\Third_Party\FreeRTOS-Plus-TCP\FreeRTOS_ARP.o
 .debug_ranges  0x00001370       0x68 Middlewares\Third_Party\FreeRTOS-Plus-TCP\FreeRTOS_DNS.o
 .debug_ranges  0x000013d8      0x168 Middlewares\Third_Party\FreeRTOS-Plus-TCP\FreeRTOS_IP.o
 .debug_ranges  0x00001540      0x228 Middlewares\Third_Party\FreeRTOS-Plus-TCP\FreeRTOS_Sockets.o
 .debug_ranges  0x00001768       0x48 Middlewares\Third_Party\FreeRTOS-Plus-TCP\FreeRTOS_Stream_Buffer.o
 .debug_ranges  0x000017b0      0x170 Middlewares\Third_Party\FreeRTOS-Plus-TCP\FreeRTOS_TCP_IP.o
 .debug_ranges  0x00001920      0x108 Middlewares\Third_Party\FreeRTOS-Plus-TCP\FreeRTOS_TCP_WIN.o
 .debug_ranges  0x00001a28       0x18 Middlewares\Third_Party\FreeRTOS-Plus-TCP\FreeRTOS_UDP_IP.o
 .debug_ranges  0x00001a40       0x48 Middlewares\Third_Party\FreeRTOS-Plus-TCP\portable\BufferManagement\BufferAllocation_2.o
 .debug_ranges  0x00001a88       0x70 Src\main.o
 .debug_ranges  0x00001af8       0x10 Src\stm32f4xx_hal_msp.o
 .debug_ranges  0x00001b08       0x20 Src\stm32f4xx_hal_timebase_TIM.o
 .debug_ranges  0x00001b28       0x48 Src\stm32f4xx_it.o
 .debug_ranges  0x00001b70       0x18 Src\system_stm32f4xx.o
 .debug_ranges  0x00001b88       0x20 startup\startup_stm32f411xe.o

.debug_line     0x00000000     0xfe70
 .debug_line    0x00000000      0x491 Drivers\STM32F4xx_HAL_Driver\Src\stm32f4xx_hal.o
 .debug_line    0x00000491      0x5c9 Drivers\STM32F4xx_HAL_Driver\Src\stm32f4xx_hal_cortex.o
 .debug_line    0x00000a5a      0x45b Drivers\STM32F4xx_HAL_Driver\Src\stm32f4xx_hal_gpio.o
 .debug_line    0x00000eb5      0x7f9 Drivers\STM32F4xx_HAL_Driver\Src\stm32f4xx_hal_pcd.o
 .debug_line    0x000016ae      0x2fa Drivers\STM32F4xx_HAL_Driver\Src\stm32f4xx_hal_pcd_ex.o
 .debug_line    0x000019a8      0x530 Drivers\STM32F4xx_HAL_Driver\Src\stm32f4xx_hal_rcc.o
 .debug_line    0x00001ed8     0x1272 Drivers\STM32F4xx_HAL_Driver\Src\stm32f4xx_hal_tim.o
 .debug_line    0x0000314a      0x885 Drivers\STM32F4xx_HAL_Driver\Src\stm32f4xx_hal_tim_ex.o
 .debug_line    0x000039cf      0x927 Drivers\STM32F4xx_HAL_Driver\Src\stm32f4xx_ll_usb.o
 .debug_line    0x000042f6      0x476 Middlewares\ST\STM32_USB_Device_Library\App\Src\usb_device.o
 .debug_line    0x0000476c      0x6e8 Middlewares\ST\STM32_USB_Device_Library\App\Src\usbd_conf.o
 .debug_line    0x00004e54      0x3e2 Middlewares\ST\STM32_USB_Device_Library\App\Src\usbd_desc.o
 .debug_line    0x00005236      0x6fa Middlewares\ST\STM32_USB_Device_Library\App\Src\usbd_rndis_if.o
 .debug_line    0x00005930      0x799 Middlewares\ST\STM32_USB_Device_Library\Class\Composite\Src\usbd_composite.o
 .debug_line    0x000060c9      0x55a Middlewares\ST\STM32_USB_Device_Library\Class\RNDIS\Src\usbd_rndis.o
 .debug_line    0x00006623      0x4e2 Middlewares\ST\STM32_USB_Device_Library\Core\Src\usbd_core.o
 .debug_line    0x00006b05      0x53c Middlewares\ST\STM32_USB_Device_Library\Core\Src\usbd_ctlreq.o
 .debug_line    0x00007041      0x37d Middlewares\ST\STM32_USB_Device_Library\Core\Src\usbd_ioreq.o
 .debug_line    0x000073be      0x91c Middlewares\Third_Party\FreeRTOS\Source\CMSIS_RTOS\cmsis_os.o
 .debug_line    0x00007cda      0x56e Middlewares\Third_Party\FreeRTOS\Source\event_groups.o
 .debug_line    0x00008248      0x364 Middlewares\Third_Party\FreeRTOS\Source\list.o
 .debug_line    0x000085ac      0x3b8 Middlewares\Third_Party\FreeRTOS\Source\portable\GCC\ARM_CM4F\port.o
 .debug_line    0x00008964      0x401 Middlewares\Third_Party\FreeRTOS\Source\portable\MemMang\heap_4.o
 .debug_line    0x00008d65      0xa13 Middlewares\Third_Party\FreeRTOS\Source\queue.o
 .debug_line    0x00009778      0xd44 Middlewares\Third_Party\FreeRTOS\Source\tasks.o
 .debug_line    0x0000a4bc      0x51e Middlewares\Third_Party\FreeRTOS-Plus-TCP\FreeRTOS_ARP.o
 .debug_line    0x0000a9da      0x65c Middlewares\Third_Party\FreeRTOS-Plus-TCP\FreeRTOS_DNS.o
 .debug_line    0x0000b036      0x984 Middlewares\Third_Party\FreeRTOS-Plus-TCP\FreeRTOS_IP.o
 .debug_line    0x0000b9ba      0xf31 Middlewares\Third_Party\FreeRTOS-Plus-TCP\FreeRTOS_Sockets.o
 .debug_line    0x0000c8eb      0x488 Middlewares\Third_Party\FreeRTOS-Plus-TCP\FreeRTOS_Stream_Buffer.o
 .debug_line    0x0000cd73      0xc63 Middlewares\Third_Party\FreeRTOS-Plus-TCP\FreeRTOS_TCP_IP.o
 .debug_line    0x0000d9d6      0x8db Middlewares\Third_Party\FreeRTOS-Plus-TCP\FreeRTOS_TCP_WIN.o
 .debug_line    0x0000e2b1      0x467 Middlewares\Third_Party\FreeRTOS-Plus-TCP\FreeRTOS_UDP_IP.o
 .debug_line    0x0000e718      0x4f2 Middlewares\Third_Party\FreeRTOS-Plus-TCP\portable\BufferManagement\BufferAllocation_2.o
 .debug_line    0x0000ec0a      0x6cb Src\main.o
 .debug_line    0x0000f2d5      0x24c Src\stm32f4xx_hal_msp.o
 .debug_line    0x0000f521      0x304 Src\stm32f4xx_hal_timebase_TIM.o
 .debug_line    0x0000f825      0x35c Src\stm32f4xx_it.o
 .debug_line    0x0000fb81      0x270 Src\system_stm32f4xx.o
 .debug_line    0x0000fdf1       0x7f startup\startup_stm32f411xe.o

.debug_str      0x00000000     0xa1b3
 .debug_str     0x00000000      0xd78 Drivers\STM32F4xx_HAL_Driver\Src\stm32f4xx_hal.o
                                0xe2a (size before relaxing)
 .debug_str     0x00000d78      0x3ff Drivers\STM32F4xx_HAL_Driver\Src\stm32f4xx_hal_cortex.o
                                0xf34 (size before relaxing)
 .debug_str     0x00001177      0x1d3 Drivers\STM32F4xx_HAL_Driver\Src\stm32f4xx_hal_gpio.o
                                0x974 (size before relaxing)
 .debug_str     0x0000134a      0x7ac Drivers\STM32F4xx_HAL_Driver\Src\stm32f4xx_hal_pcd.o
                                0xe55 (size before relaxing)
 .debug_str     0x00001af6       0x72 Drivers\STM32F4xx_HAL_Driver\Src\stm32f4xx_hal_pcd_ex.o
                                0x9ee (size before relaxing)
 .debug_str     0x00001b68      0x2e9 Drivers\STM32F4xx_HAL_Driver\Src\stm32f4xx_hal_rcc.o
                                0xb20 (size before relaxing)
 .debug_str     0x00001e51     0x1094 Drivers\STM32F4xx_HAL_Driver\Src\stm32f4xx_hal_tim.o
                               0x17d2 (size before relaxing)
 .debug_str     0x00002ee5      0x543 Drivers\STM32F4xx_HAL_Driver\Src\stm32f4xx_hal_tim_ex.o
                               0x108d (size before relaxing)
 .debug_str     0x00003428      0x5c5 Drivers\STM32F4xx_HAL_Driver\Src\stm32f4xx_ll_usb.o
                               0x1008 (size before relaxing)
 .debug_str     0x000039ed      0x3a6 Middlewares\ST\STM32_USB_Device_Library\App\Src\usb_device.o
                                0xaa1 (size before relaxing)
 .debug_str     0x00003d93      0x1b9 Middlewares\ST\STM32_USB_Device_Library\App\Src\usbd_conf.o
                               0x159b (size before relaxing)
 .debug_str     0x00003f4c      0x13a Middlewares\ST\STM32_USB_Device_Library\App\Src\usbd_desc.o
                                0x895 (size before relaxing)
 .debug_str     0x00004086      0x73d Middlewares\ST\STM32_USB_Device_Library\App\Src\usbd_rndis_if.o
                               0x128b (size before relaxing)
 .debug_str     0x000047c3      0x46b Middlewares\ST\STM32_USB_Device_Library\Class\Composite\Src\usbd_composite.o
                                0xe87 (size before relaxing)
 .debug_str     0x00004c2e      0x23f Middlewares\ST\STM32_USB_Device_Library\Class\RNDIS\Src\usbd_rndis.o
                                0xcfb (size before relaxing)
 .debug_str     0x00004e6d      0x1ae Middlewares\ST\STM32_USB_Device_Library\Core\Src\usbd_core.o
                                0xbb8 (size before relaxing)
 .debug_str     0x0000501b      0x126 Middlewares\ST\STM32_USB_Device_Library\Core\Src\usbd_ctlreq.o
                                0xb3e (size before relaxing)
 .debug_str     0x00005141       0xc9 Middlewares\ST\STM32_USB_Device_Library\Core\Src\usbd_ioreq.o
                                0xac6 (size before relaxing)
 .debug_str     0x0000520a      0x87d Middlewares\Third_Party\FreeRTOS\Source\CMSIS_RTOS\cmsis_os.o
                                0xf74 (size before relaxing)
 .debug_str     0x00005a87      0x2cc Middlewares\Third_Party\FreeRTOS\Source\event_groups.o
                                0x9d2 (size before relaxing)
 .debug_str     0x00005d53       0xbf Middlewares\Third_Party\FreeRTOS\Source\list.o
                                0x74e (size before relaxing)
 .debug_str     0x00005e12      0x225 Middlewares\Third_Party\FreeRTOS\Source\portable\GCC\ARM_CM4F\port.o
                                0x46a (size before relaxing)
 .debug_str     0x00006037      0x1f8 Middlewares\Third_Party\FreeRTOS\Source\portable\MemMang\heap_4.o
                                0x818 (size before relaxing)
 .debug_str     0x0000622f      0x49c Middlewares\Third_Party\FreeRTOS\Source\queue.o
                                0xc22 (size before relaxing)
 .debug_str     0x000066cb      0x909 Middlewares\Third_Party\FreeRTOS\Source\tasks.o
                               0x117c (size before relaxing)
 .debug_str     0x00006fd4      0x375 Middlewares\Third_Party\FreeRTOS-Plus-TCP\FreeRTOS_ARP.o
                                0xd97 (size before relaxing)
 .debug_str     0x00007349      0x588 Middlewares\Third_Party\FreeRTOS-Plus-TCP\FreeRTOS_DNS.o
                                0xf54 (size before relaxing)
 .debug_str     0x000078d1      0xfa6 Middlewares\Third_Party\FreeRTOS-Plus-TCP\FreeRTOS_IP.o
                               0x1eb3 (size before relaxing)
 .debug_str     0x00008877      0x9ee Middlewares\Third_Party\FreeRTOS-Plus-TCP\FreeRTOS_Sockets.o
                               0x1cef (size before relaxing)
 .debug_str     0x00009265       0xb5 Middlewares\Third_Party\FreeRTOS-Plus-TCP\FreeRTOS_Stream_Buffer.o
                                0xa09 (size before relaxing)
 .debug_str     0x0000931a      0x505 Middlewares\Third_Party\FreeRTOS-Plus-TCP\FreeRTOS_TCP_IP.o
                               0x1a3b (size before relaxing)
 .debug_str     0x0000981f      0x39f Middlewares\Third_Party\FreeRTOS-Plus-TCP\FreeRTOS_TCP_WIN.o
                                0xf80 (size before relaxing)
 .debug_str     0x00009bbe       0x87 Middlewares\Third_Party\FreeRTOS-Plus-TCP\FreeRTOS_UDP_IP.o
                               0x1341 (size before relaxing)
 .debug_str     0x00009c45      0x1f4 Middlewares\Third_Party\FreeRTOS-Plus-TCP\portable\BufferManagement\BufferAllocation_2.o
                                0xb4f (size before relaxing)
 .debug_str     0x00009e39      0x214 Src\main.o
                               0x18f5 (size before relaxing)
 .debug_str     0x0000a04d       0x1b Src\stm32f4xx_hal_msp.o
                                0xaf2 (size before relaxing)
 .debug_str     0x0000a068       0x62 Src\stm32f4xx_hal_timebase_TIM.o
                               0x100b (size before relaxing)
 .debug_str     0x0000a0ca       0xa4 Src\stm32f4xx_it.o
                                0xdc1 (size before relaxing)
 .debug_str     0x0000a16e       0x45 Src\system_stm32f4xx.o
                                0x7d8 (size before relaxing)

.comment        0x00000000       0x7c
 .comment       0x00000000       0x7c Drivers\STM32F4xx_HAL_Driver\Src\stm32f4xx_hal.o
                                 0x7d (size before relaxing)
 .comment       0x0000007c       0x7d Drivers\STM32F4xx_HAL_Driver\Src\stm32f4xx_hal_cortex.o
 .comment       0x0000007c       0x7d Drivers\STM32F4xx_HAL_Driver\Src\stm32f4xx_hal_gpio.o
 .comment       0x0000007c       0x7d Drivers\STM32F4xx_HAL_Driver\Src\stm32f4xx_hal_pcd.o
 .comment       0x0000007c       0x7d Drivers\STM32F4xx_HAL_Driver\Src\stm32f4xx_hal_pcd_ex.o
 .comment       0x0000007c       0x7d Drivers\STM32F4xx_HAL_Driver\Src\stm32f4xx_hal_rcc.o
 .comment       0x0000007c       0x7d Drivers\STM32F4xx_HAL_Driver\Src\stm32f4xx_hal_tim.o
 .comment       0x0000007c       0x7d Drivers\STM32F4xx_HAL_Driver\Src\stm32f4xx_hal_tim_ex.o
 .comment       0x0000007c       0x7d Drivers\STM32F4xx_HAL_Driver\Src\stm32f4xx_ll_usb.o
 .comment       0x0000007c       0x7d Middlewares\ST\STM32_USB_Device_Library\App\Src\usb_device.o
 .comment       0x0000007c       0x7d Middlewares\ST\STM32_USB_Device_Library\App\Src\usbd_conf.o
 .comment       0x0000007c       0x7d Middlewares\ST\STM32_USB_Device_Library\App\Src\usbd_desc.o
 .comment       0x0000007c       0x7d Middlewares\ST\STM32_USB_Device_Library\App\Src\usbd_rndis_if.o
 .comment       0x0000007c       0x7d Middlewares\ST\STM32_USB_Device_Library\Class\Composite\Src\usbd_composite.o
 .comment       0x0000007c       0x7d Middlewares\ST\STM32_USB_Device_Library\Class\RNDIS\Src\usbd_rndis.o
 .comment       0x0000007c       0x7d Middlewares\ST\STM32_USB_Device_Library\Core\Src\usbd_core.o
 .comment       0x0000007c       0x7d Middlewares\ST\STM32_USB_Device_Library\Core\Src\usbd_ctlreq.o
 .comment       0x0000007c       0x7d Middlewares\ST\STM32_USB_Device_Library\Core\Src\usbd_ioreq.o
 .comment       0x0000007c       0x7d Middlewares\Third_Party\FreeRTOS\Source\CMSIS_RTOS\cmsis_os.o
 .comment       0x0000007c       0x7d Middlewares\Third_Party\FreeRTOS\Source\event_groups.o
 .comment       0x0000007c       0x7d Middlewares\Third_Party\FreeRTOS\Source\list.o
 .comment       0x0000007c       0x7d Middlewares\Third_Party\FreeRTOS\Source\portable\GCC\ARM_CM4F\port.o
 .comment       0x0000007c       0x7d Middlewares\Third_Party\FreeRTOS\Source\portable\MemMang\heap_4.o
 .comment       0x0000007c       0x7d Middlewares\Third_Party\FreeRTOS\Source\queue.o
 .comment       0x0000007c       0x7d Middlewares\Third_Party\FreeRTOS\Source\tasks.o
 .comment       0x0000007c       0x7d Middlewares\Third_Party\FreeRTOS-Plus-TCP\FreeRTOS_ARP.o
 .comment       0x0000007c       0x7d Middlewares\Third_Party\FreeRTOS-Plus-TCP\FreeRTOS_DNS.o
 .comment       0x0000007c       0x7d Middlewares\Third_Party\FreeRTOS-Plus-TCP\FreeRTOS_IP.o
 .comment       0x0000007c       0x7d Middlewares\Third_Party\FreeRTOS-Plus-TCP\FreeRTOS_Sockets.o
 .comment       0x0000007c       0x7d Middlewares\Third_Party\FreeRTOS-Plus-TCP\FreeRTOS_Stream_Buffer.o
 .comment       0x0000007c       0x7d Middlewares\Third_Party\FreeRTOS-Plus-TCP\FreeRTOS_TCP_IP.o
 .comment       0x0000007c       0x7d Middlewares\Third_Party\FreeRTOS-Plus-TCP\FreeRTOS_TCP_WIN.o
 .comment       0x0000007c       0x7d Middlewares\Third_Party\FreeRTOS-Plus-TCP\FreeRTOS_UDP_IP.o
 .comment       0x0000007c       0x7d Middlewares\Third_Party\FreeRTOS-Plus-TCP\portable\BufferManagement\BufferAllocation_2.o
 .comment       0x0000007c       0x7d Src\main.o
 .comment       0x0000007c       0x7d Src\stm32f4xx_hal_msp.o
 .comment       0x0000007c       0x7d Src\stm32f4xx_hal_timebase_TIM.o
 .comment       0x0000007c       0x7d Src\stm32f4xx_it.o
 .comment       0x0000007c       0x7d Src\system_stm32f4xx.o

.debug_frame    0x00000000     0x7e14
 .debug_frame   0x00000000      0x33c Drivers\STM32F4xx_HAL_Driver\Src\stm32f4xx_hal.o
 .debug_frame   0x0000033c      0x498 Drivers\STM32F4xx_HAL_Driver\Src\stm32f4xx_hal_cortex.o
 .debug_frame   0x000007d4      0x14c Drivers\STM32F4xx_HAL_Driver\Src\stm32f4xx_hal_gpio.o
 .debug_frame   0x00000920      0x508 Drivers\STM32F4xx_HAL_Driver\Src\stm32f4xx_hal_pcd.o
 .debug_frame   0x00000e28       0x60 Drivers\STM32F4xx_HAL_Driver\Src\stm32f4xx_hal_pcd_ex.o
 .debug_frame   0x00000e88      0x1f8 Drivers\STM32F4xx_HAL_Driver\Src\stm32f4xx_hal_rcc.o
 .debug_frame   0x00001080      0xfb4 Drivers\STM32F4xx_HAL_Driver\Src\stm32f4xx_hal_tim.o
 .debug_frame   0x00002034      0x574 Drivers\STM32F4xx_HAL_Driver\Src\stm32f4xx_hal_tim_ex.o
 .debug_frame   0x000025a8      0x710 Drivers\STM32F4xx_HAL_Driver\Src\stm32f4xx_ll_usb.o
 .debug_frame   0x00002cb8       0x2c Middlewares\ST\STM32_USB_Device_Library\App\Src\usb_device.o
 .debug_frame   0x00002ce4      0x420 Middlewares\ST\STM32_USB_Device_Library\App\Src\usbd_conf.o
 .debug_frame   0x00003104      0x114 Middlewares\ST\STM32_USB_Device_Library\App\Src\usbd_desc.o
 .debug_frame   0x00003218      0x170 Middlewares\ST\STM32_USB_Device_Library\App\Src\usbd_rndis_if.o
 .debug_frame   0x00003388      0x29c Middlewares\ST\STM32_USB_Device_Library\Class\Composite\Src\usbd_composite.o
 .debug_frame   0x00003624      0x270 Middlewares\ST\STM32_USB_Device_Library\Class\RNDIS\Src\usbd_rndis.o
 .debug_frame   0x00003894      0x300 Middlewares\ST\STM32_USB_Device_Library\Core\Src\usbd_core.o
 .debug_frame   0x00003b94      0x210 Middlewares\ST\STM32_USB_Device_Library\Core\Src\usbd_ctlreq.o
 .debug_frame   0x00003da4      0x10c Middlewares\ST\STM32_USB_Device_Library\Core\Src\usbd_ioreq.o
 .debug_frame   0x00003eb0      0x808 Middlewares\Third_Party\FreeRTOS\Source\CMSIS_RTOS\cmsis_os.o
 .debug_frame   0x000046b8      0x180 Middlewares\Third_Party\FreeRTOS\Source\event_groups.o
 .debug_frame   0x00004838       0xd8 Middlewares\Third_Party\FreeRTOS\Source\list.o
 .debug_frame   0x00004910      0x19c Middlewares\Third_Party\FreeRTOS\Source\portable\GCC\ARM_CM4F\port.o
 .debug_frame   0x00004aac      0x108 Middlewares\Third_Party\FreeRTOS\Source\portable\MemMang\heap_4.o
 .debug_frame   0x00004bb4      0x3d4 Middlewares\Third_Party\FreeRTOS\Source\queue.o
 .debug_frame   0x00004f88      0x6b8 Middlewares\Third_Party\FreeRTOS\Source\tasks.o
 .debug_frame   0x00005640      0x14c Middlewares\Third_Party\FreeRTOS-Plus-TCP\FreeRTOS_ARP.o
 .debug_frame   0x0000578c      0x1dc Middlewares\Third_Party\FreeRTOS-Plus-TCP\FreeRTOS_DNS.o
 .debug_frame   0x00005968      0x5d4 Middlewares\Third_Party\FreeRTOS-Plus-TCP\FreeRTOS_IP.o
 .debug_frame   0x00005f3c      0x938 Middlewares\Third_Party\FreeRTOS-Plus-TCP\FreeRTOS_Sockets.o
 .debug_frame   0x00006874      0x140 Middlewares\Third_Party\FreeRTOS-Plus-TCP\FreeRTOS_Stream_Buffer.o
 .debug_frame   0x000069b4      0x63c Middlewares\Third_Party\FreeRTOS-Plus-TCP\FreeRTOS_TCP_IP.o
 .debug_frame   0x00006ff0      0x4c0 Middlewares\Third_Party\FreeRTOS-Plus-TCP\FreeRTOS_TCP_WIN.o
 .debug_frame   0x000074b0       0x5c Middlewares\Third_Party\FreeRTOS-Plus-TCP\FreeRTOS_UDP_IP.o
 .debug_frame   0x0000750c      0x128 Middlewares\Third_Party\FreeRTOS-Plus-TCP\portable\BufferManagement\BufferAllocation_2.o
 .debug_frame   0x00007634      0x1c8 Src\main.o
 .debug_frame   0x000077fc       0x34 Src\stm32f4xx_hal_msp.o
 .debug_frame   0x00007830       0x74 Src\stm32f4xx_hal_timebase_TIM.o
 .debug_frame   0x000078a4       0xe8 Src\stm32f4xx_it.o
 .debug_frame   0x0000798c       0x58 Src\system_stm32f4xx.o
 .debug_frame   0x000079e4       0x2c c:/program files (x86)/atollic/truestudio for stm32 9.0.0/armtools/bin/../lib/gcc/arm-atollic-eabi/6.3.1/../../../../arm-atollic-eabi/lib/armv7e-m/fpu\libc_nano.a(lib_a-init.o)
 .debug_frame   0x00007a10       0x30 c:/program files (x86)/atollic/truestudio for stm32 9.0.0/armtools/bin/../lib/gcc/arm-atollic-eabi/6.3.1/../../../../arm-atollic-eabi/lib/armv7e-m/fpu\libc_nano.a(lib_a-malloc.o)
 .debug_frame   0x00007a40       0x28 c:/program files (x86)/atollic/truestudio for stm32 9.0.0/armtools/bin/../lib/gcc/arm-atollic-eabi/6.3.1/../../../../arm-atollic-eabi/lib/armv7e-m/fpu\libc_nano.a(lib_a-memcmp.o)
 .debug_frame   0x00007a68       0x28 c:/program files (x86)/atollic/truestudio for stm32 9.0.0/armtools/bin/../lib/gcc/arm-atollic-eabi/6.3.1/../../../../arm-atollic-eabi/lib/armv7e-m/fpu\libc_nano.a(lib_a-memcpy-stub.o)
 .debug_frame   0x00007a90       0x28 c:/program files (x86)/atollic/truestudio for stm32 9.0.0/armtools/bin/../lib/gcc/arm-atollic-eabi/6.3.1/../../../../arm-atollic-eabi/lib/armv7e-m/fpu\libc_nano.a(lib_a-memmove.o)
 .debug_frame   0x00007ab8       0x20 c:/program files (x86)/atollic/truestudio for stm32 9.0.0/armtools/bin/../lib/gcc/arm-atollic-eabi/6.3.1/../../../../arm-atollic-eabi/lib/armv7e-m/fpu\libc_nano.a(lib_a-memset.o)
 .debug_frame   0x00007ad8       0x38 c:/program files (x86)/atollic/truestudio for stm32 9.0.0/armtools/bin/../lib/gcc/arm-atollic-eabi/6.3.1/../../../../arm-atollic-eabi/lib/armv7e-m/fpu\libc_nano.a(lib_a-nano-freer.o)
 .debug_frame   0x00007b10       0x2c c:/program files (x86)/atollic/truestudio for stm32 9.0.0/armtools/bin/../lib/gcc/arm-atollic-eabi/6.3.1/../../../../arm-atollic-eabi/lib/armv7e-m/fpu\libc_nano.a(lib_a-nano-mallocr.o)
 .debug_frame   0x00007b3c       0x44 c:/program files (x86)/atollic/truestudio for stm32 9.0.0/armtools/bin/../lib/gcc/arm-atollic-eabi/6.3.1/../../../../arm-atollic-eabi/lib/armv7e-m/fpu\libc_nano.a(lib_a-rand.o)
 .debug_frame   0x00007b80       0x2c c:/program files (x86)/atollic/truestudio for stm32 9.0.0/armtools/bin/../lib/gcc/arm-atollic-eabi/6.3.1/../../../../arm-atollic-eabi/lib/armv7e-m/fpu\libc_nano.a(lib_a-sbrkr.o)
 .debug_frame   0x00007bac       0x30 c:/program files (x86)/atollic/truestudio for stm32 9.0.0/armtools/bin/../lib/gcc/arm-atollic-eabi/6.3.1/../../../../arm-atollic-eabi/lib/armv7e-m/fpu\libc_nano.a(lib_a-strcasecmp.o)
 .debug_frame   0x00007bdc       0x20 c:/program files (x86)/atollic/truestudio for stm32 9.0.0/armtools/bin/../lib/gcc/arm-atollic-eabi/6.3.1/../../../../arm-atollic-eabi/lib/armv7e-m/fpu\libc_nano.a(lib_a-strcmp.o)
 .debug_frame   0x00007bfc       0x20 c:/program files (x86)/atollic/truestudio for stm32 9.0.0/armtools/bin/../lib/gcc/arm-atollic-eabi/6.3.1/../../../../arm-atollic-eabi/lib/armv7e-m/fpu\libc_nano.a(lib_a-strcpy.o)
 .debug_frame   0x00007c1c       0x68 c:/program files (x86)/atollic/truestudio for stm32 9.0.0/armtools/bin/../lib/gcc/arm-atollic-eabi/6.3.1/../../../../arm-atollic-eabi/lib/armv7e-m/fpu\libc_nano.a(lib_a-locale.o)
 .debug_frame   0x00007c84       0x48 c:/program files (x86)/atollic/truestudio for stm32 9.0.0/armtools/bin/../lib/gcc/arm-atollic-eabi/6.3.1/../../../../arm-atollic-eabi/lib/armv7e-m/fpu\libc_nano.a(lib_a-mbtowc_r.o)
 .debug_frame   0x00007ccc       0x30 c:/program files (x86)/atollic/truestudio for stm32 9.0.0/armtools/bin/../lib/gcc/arm-atollic-eabi/6.3.1/../../../../arm-atollic-eabi/lib/armv7e-m/fpu\libc_nano.a(lib_a-mlock.o)
 .debug_frame   0x00007cfc       0x5c c:/program files (x86)/atollic/truestudio for stm32 9.0.0/armtools/bin/../lib/gcc/arm-atollic-eabi/6.3.1/../../../../arm-atollic-eabi/lib/armv7e-m/fpu\libc_nano.a(lib_a-reent.o)
 .debug_frame   0x00007d58       0x3c c:/program files (x86)/atollic/truestudio for stm32 9.0.0/armtools/bin/../lib/gcc/arm-atollic-eabi/6.3.1/../../../../arm-atollic-eabi/lib/armv7e-m/fpu\libc_nano.a(lib_a-wctomb_r.o)
 .debug_frame   0x00007d94       0x2c c:/program files (x86)/atollic/truestudio for stm32 9.0.0/armtools/bin/../lib/gcc/arm-atollic-eabi/6.3.1/armv7e-m/fpu\libgcc.a(_aeabi_uldivmod.o)
 .debug_frame   0x00007dc0       0x34 c:/program files (x86)/atollic/truestudio for stm32 9.0.0/armtools/bin/../lib/gcc/arm-atollic-eabi/6.3.1/armv7e-m/fpu\libgcc.a(_udivmoddi4.o)
 .debug_frame   0x00007df4       0x20 c:/program files (x86)/atollic/truestudio for stm32 9.0.0/armtools/bin/../lib/gcc/arm-atollic-eabi/6.3.1/../../../../arm-atollic-eabi/lib/armv7e-m/fpu\libnosys.a(sbrk.o)
